ARM Linker, 5.02 [Build 28] [MDK-ARM Standard]

==============================================================================

Section Cross References

    main.o(i.App_TaskStart) refers to bsp.o(i.BSP_Init) for BSP_Init
    main.o(i.App_TaskStart) refers to bsp.o(i.SysTick_Init) for SysTick_Init
    main.o(i.App_TaskStart) refers to printf3.o(i.__0printf$3) for __2printf
    main.o(i.App_TaskStart) refers to lwip.o(i.Init_LwIP) for Init_LwIP
    main.o(i.App_TaskStart) refers to app.o(i.App_TaskCreate) for App_TaskCreate
    main.o(i.App_TaskStart) refers to os_task.o(i.OSTaskDel) for OSTaskDel
    main.o(i.main) refers to os_core.o(i.OSInit) for OSInit
    main.o(i.main) refers to os_task.o(i.OSTaskCreateExt) for OSTaskCreateExt
    main.o(i.main) refers to os_core.o(i.OSStart) for OSStart
    main.o(i.main) refers to main.o(.bss) for App_TaskStartStk
    main.o(i.main) refers to main.o(i.App_TaskStart) for App_TaskStart
    lwip.o(i.Display_IPAddress) refers to printf3.o(i.__0sprintf$3) for __2sprintf
    lwip.o(i.Display_IPAddress) refers to lwip.o(i.list_if) for list_if
    lwip.o(i.Display_IPAddress) refers to lwip.o(.bss) for netif
    lwip.o(i.Display_IPAddress) refers to lwip.o(.data) for IPaddress
    lwip.o(i.Init_LwIP) refers to sys_arch.o(i.sys_init) for sys_init
    lwip.o(i.Init_LwIP) refers to mem.o(i.mem_init) for mem_init
    lwip.o(i.Init_LwIP) refers to memp.o(i.memp_init) for memp_init
    lwip.o(i.Init_LwIP) refers to printf3.o(i.__0printf$3) for __2printf
    lwip.o(i.Init_LwIP) refers to sys_arch.o(i.sys_sem_new) for sys_sem_new
    lwip.o(i.Init_LwIP) refers to tcpip.o(i.tcpip_init) for tcpip_init
    lwip.o(i.Init_LwIP) refers to sys.o(i.sys_sem_wait) for sys_sem_wait
    lwip.o(i.Init_LwIP) refers to sys_arch.o(i.sys_sem_free) for sys_sem_free
    lwip.o(i.Init_LwIP) refers to inet.o(i.htonl) for htonl
    lwip.o(i.Init_LwIP) refers to ethernetif.o(i.Set_MAC_Address) for Set_MAC_Address
    lwip.o(i.Init_LwIP) refers to netif.o(i.netif_add) for netif_add
    lwip.o(i.Init_LwIP) refers to netif.o(i.netif_set_default) for netif_set_default
    lwip.o(i.Init_LwIP) refers to netif.o(i.netif_set_up) for netif_set_up
    lwip.o(i.Init_LwIP) refers to lwip.o(i.TcpipInitDone) for TcpipInitDone
    lwip.o(i.Init_LwIP) refers to tcpip.o(i.tcpip_input) for tcpip_input
    lwip.o(i.Init_LwIP) refers to ethernetif.o(i.ethernetif_init) for ethernetif_init
    lwip.o(i.Init_LwIP) refers to lwip.o(.bss) for netif
    lwip.o(i.LwIP_Pkt_Handle) refers to ethernetif.o(i.ethernetif_input) for ethernetif_input
    lwip.o(i.LwIP_Pkt_Handle) refers to lwip.o(.bss) for netif
    lwip.o(i.TcpipInitDone) refers to sys_arch.o(i.sys_sem_signal) for sys_sem_signal
    lwip.o(i.list_if) refers to printf3.o(i.__0printf$3) for __2printf
    lwip.o(i.list_if) refers to inet.o(i.inet_ntoa) for inet_ntoa
    lwip.o(i.list_if) refers to lwip.o(.bss) for netif
    app.o(i.App_TaskCreate) refers to os_task.o(i.OSTaskCreate) for OSTaskCreate
    app.o(i.App_TaskCreate) refers to os_task.o(i.OSTaskNameSet) for OSTaskNameSet
    app.o(i.App_TaskCreate) refers to app.o(.bss) for App_TaskToggleLEDStk
    app.o(i.App_TaskCreate) refers to app.o(i.App_TaskToggleLED) for App_TaskToggleLED
    app.o(i.App_TaskCreate) refers to app.o(i.App_TaskToggleLED1) for App_TaskToggleLED1
    app.o(i.App_TaskToggleLED) refers to bsp.o(i.BSP_LedToggle) for BSP_LedToggle
    app.o(i.App_TaskToggleLED) refers to os_time.o(i.OSTimeDlyHMSM) for OSTimeDlyHMSM
    app.o(i.App_TaskToggleLED1) refers to bsp.o(i.BSP_Led1Toggle) for BSP_Led1Toggle
    app.o(i.App_TaskToggleLED1) refers to os_time.o(i.OSTimeDlyHMSM) for OSTimeDlyHMSM
    bsp.o(i.BSP_EthernetInit) refers to stm32f10x_rcc.o(i.RCC_AHBPeriphClockCmd) for RCC_AHBPeriphClockCmd
    bsp.o(i.BSP_EthernetInit) refers to stm32f10x_rcc.o(i.RCC_APB2PeriphClockCmd) for RCC_APB2PeriphClockCmd
    bsp.o(i.BSP_EthernetInit) refers to stm32f10x_gpio.o(i.GPIO_Init) for GPIO_Init
    bsp.o(i.BSP_EthernetInit) refers to stm32f10x_gpio.o(i.GPIO_PinRemapConfig) for GPIO_PinRemapConfig
    bsp.o(i.BSP_EthernetInit) refers to bsp.o(i.Ethernet_Configuration) for Ethernet_Configuration
    bsp.o(i.BSP_Init) refers to system_stm32f10x.o(i.SystemInit) for SystemInit
    bsp.o(i.BSP_Init) refers to bsp.o(i.BSP_LedInit) for BSP_LedInit
    bsp.o(i.BSP_Init) refers to bsp.o(i.BSP_UsartInit) for BSP_UsartInit
    bsp.o(i.BSP_Init) refers to bsp.o(i.BSP_EthernetInit) for BSP_EthernetInit
    bsp.o(i.BSP_Init) refers to bsp.o(i.BSP_NVICConfiguration) for BSP_NVICConfiguration
    bsp.o(i.BSP_LedInit) refers to stm32f10x_rcc.o(i.RCC_APB2PeriphClockCmd) for RCC_APB2PeriphClockCmd
    bsp.o(i.BSP_LedInit) refers to stm32f10x_gpio.o(i.GPIO_Init) for GPIO_Init
    bsp.o(i.BSP_LedInit) refers to stm32f10x_gpio.o(i.GPIO_SetBits) for GPIO_SetBits
    bsp.o(i.BSP_NVICConfiguration) refers to misc.o(i.NVIC_SetVectorTable) for NVIC_SetVectorTable
    bsp.o(i.BSP_NVICConfiguration) refers to misc.o(i.NVIC_PriorityGroupConfig) for NVIC_PriorityGroupConfig
    bsp.o(i.BSP_NVICConfiguration) refers to misc.o(i.NVIC_Init) for NVIC_Init
    bsp.o(i.BSP_UsartInit) refers to stm32f10x_rcc.o(i.RCC_APB2PeriphClockCmd) for RCC_APB2PeriphClockCmd
    bsp.o(i.BSP_UsartInit) refers to stm32f10x_gpio.o(i.GPIO_Init) for GPIO_Init
    bsp.o(i.BSP_UsartInit) refers to stm32f10x_usart.o(i.USART_ClockInit) for USART_ClockInit
    bsp.o(i.BSP_UsartInit) refers to stm32f10x_usart.o(i.USART_Init) for USART_Init
    bsp.o(i.BSP_UsartInit) refers to stm32f10x_usart.o(i.USART_Cmd) for USART_Cmd
    bsp.o(i.Ethernet_Configuration) refers to stm32f10x_gpio.o(i.GPIO_ETH_MediaInterfaceConfig) for GPIO_ETH_MediaInterfaceConfig
    bsp.o(i.Ethernet_Configuration) refers to stm32f10x_rcc.o(i.RCC_PLL3Config) for RCC_PLL3Config
    bsp.o(i.Ethernet_Configuration) refers to stm32f10x_rcc.o(i.RCC_PLL3Cmd) for RCC_PLL3Cmd
    bsp.o(i.Ethernet_Configuration) refers to stm32f10x_rcc.o(i.RCC_GetFlagStatus) for RCC_GetFlagStatus
    bsp.o(i.Ethernet_Configuration) refers to stm32f10x_rcc.o(i.RCC_MCOConfig) for RCC_MCOConfig
    bsp.o(i.Ethernet_Configuration) refers to stm32_eth.o(i.ETH_DeInit) for ETH_DeInit
    bsp.o(i.Ethernet_Configuration) refers to stm32_eth.o(i.ETH_SoftwareReset) for ETH_SoftwareReset
    bsp.o(i.Ethernet_Configuration) refers to stm32_eth.o(i.ETH_GetSoftwareResetStatus) for ETH_GetSoftwareResetStatus
    bsp.o(i.Ethernet_Configuration) refers to stm32_eth.o(i.ETH_StructInit) for ETH_StructInit
    bsp.o(i.Ethernet_Configuration) refers to stm32_eth.o(i.ETH_Init) for ETH_Init
    bsp.o(i.Ethernet_Configuration) refers to stm32_eth.o(i.ETH_DMAITConfig) for ETH_DMAITConfig
    bsp.o(i.SysTick_Init) refers to system_stm32f10x.o(.data) for SystemCoreClock
    bsp.o(i.fputc) refers to stm32f10x_usart.o(i.USART_SendData) for USART_SendData
    stm32f10x_it.o(i.ETH_IRQHandler) refers to lwip.o(i.LwIP_Pkt_Handle) for LwIP_Pkt_Handle
    stm32f10x_it.o(i.ETH_IRQHandler) refers to stm32_eth.o(i.ETH_GetRxPktSize) for ETH_GetRxPktSize
    stm32f10x_it.o(i.ETH_IRQHandler) refers to stm32_eth.o(i.ETH_DMAClearITPendingBit) for ETH_DMAClearITPendingBit
    stm32f10x_it.o(i.SysTick_Handler) refers to os_cpu_a.o(.text) for OS_CPU_SR_Save
    stm32f10x_it.o(i.SysTick_Handler) refers to os_core.o(i.OSTimeTick) for OSTimeTick
    stm32f10x_it.o(i.SysTick_Handler) refers to os_core.o(i.OSIntExit) for OSIntExit
    stm32f10x_it.o(i.SysTick_Handler) refers to os_core.o(.data) for OSIntNesting
    stm32f10x_adc.o(i.ADC_DeInit) refers to stm32f10x_rcc.o(i.RCC_APB2PeriphResetCmd) for RCC_APB2PeriphResetCmd
    stm32f10x_bkp.o(i.BKP_DeInit) refers to stm32f10x_rcc.o(i.RCC_BackupResetCmd) for RCC_BackupResetCmd
    stm32f10x_can.o(i.CAN_DeInit) refers to stm32f10x_rcc.o(i.RCC_APB1PeriphResetCmd) for RCC_APB1PeriphResetCmd
    stm32f10x_can.o(i.CAN_GetITStatus) refers to stm32f10x_can.o(i.CheckITStatus) for CheckITStatus
    stm32f10x_dac.o(i.DAC_DeInit) refers to stm32f10x_rcc.o(i.RCC_APB1PeriphResetCmd) for RCC_APB1PeriphResetCmd
    stm32f10x_flash.o(i.FLASH_EnableWriteProtection) refers to stm32f10x_flash.o(i.FLASH_WaitForLastOperation) for FLASH_WaitForLastOperation
    stm32f10x_flash.o(i.FLASH_EraseAllBank1Pages) refers to stm32f10x_flash.o(i.FLASH_WaitForLastBank1Operation) for FLASH_WaitForLastBank1Operation
    stm32f10x_flash.o(i.FLASH_EraseAllPages) refers to stm32f10x_flash.o(i.FLASH_WaitForLastOperation) for FLASH_WaitForLastOperation
    stm32f10x_flash.o(i.FLASH_EraseOptionBytes) refers to stm32f10x_flash.o(i.FLASH_GetReadOutProtectionStatus) for FLASH_GetReadOutProtectionStatus
    stm32f10x_flash.o(i.FLASH_EraseOptionBytes) refers to stm32f10x_flash.o(i.FLASH_WaitForLastOperation) for FLASH_WaitForLastOperation
    stm32f10x_flash.o(i.FLASH_ErasePage) refers to stm32f10x_flash.o(i.FLASH_WaitForLastOperation) for FLASH_WaitForLastOperation
    stm32f10x_flash.o(i.FLASH_ProgramHalfWord) refers to stm32f10x_flash.o(i.FLASH_WaitForLastOperation) for FLASH_WaitForLastOperation
    stm32f10x_flash.o(i.FLASH_ProgramOptionByteData) refers to stm32f10x_flash.o(i.FLASH_WaitForLastOperation) for FLASH_WaitForLastOperation
    stm32f10x_flash.o(i.FLASH_ProgramWord) refers to stm32f10x_flash.o(i.FLASH_WaitForLastOperation) for FLASH_WaitForLastOperation
    stm32f10x_flash.o(i.FLASH_ReadOutProtection) refers to stm32f10x_flash.o(i.FLASH_WaitForLastOperation) for FLASH_WaitForLastOperation
    stm32f10x_flash.o(i.FLASH_UserOptionByteConfig) refers to stm32f10x_flash.o(i.FLASH_WaitForLastOperation) for FLASH_WaitForLastOperation
    stm32f10x_flash.o(i.FLASH_WaitForLastBank1Operation) refers to stm32f10x_flash.o(i.FLASH_GetBank1Status) for FLASH_GetBank1Status
    stm32f10x_flash.o(i.FLASH_WaitForLastOperation) refers to stm32f10x_flash.o(i.FLASH_GetBank1Status) for FLASH_GetBank1Status
    stm32f10x_gpio.o(i.GPIO_AFIODeInit) refers to stm32f10x_rcc.o(i.RCC_APB2PeriphResetCmd) for RCC_APB2PeriphResetCmd
    stm32f10x_gpio.o(i.GPIO_DeInit) refers to stm32f10x_rcc.o(i.RCC_APB2PeriphResetCmd) for RCC_APB2PeriphResetCmd
    stm32f10x_i2c.o(i.I2C_DeInit) refers to stm32f10x_rcc.o(i.RCC_APB1PeriphResetCmd) for RCC_APB1PeriphResetCmd
    stm32f10x_i2c.o(i.I2C_Init) refers to stm32f10x_rcc.o(i.RCC_GetClocksFreq) for RCC_GetClocksFreq
    stm32f10x_pwr.o(i.PWR_DeInit) refers to stm32f10x_rcc.o(i.RCC_APB1PeriphResetCmd) for RCC_APB1PeriphResetCmd
    stm32f10x_rcc.o(i.RCC_GetClocksFreq) refers to stm32f10x_rcc.o(.data) for APBAHBPrescTable
    stm32f10x_rcc.o(i.RCC_WaitForHSEStartUp) refers to stm32f10x_rcc.o(i.RCC_GetFlagStatus) for RCC_GetFlagStatus
    stm32f10x_rtc.o(i.RTC_SetAlarm) refers to stm32f10x_rtc.o(i.RTC_EnterConfigMode) for RTC_EnterConfigMode
    stm32f10x_rtc.o(i.RTC_SetAlarm) refers to stm32f10x_rtc.o(i.RTC_ExitConfigMode) for RTC_ExitConfigMode
    stm32f10x_rtc.o(i.RTC_SetCounter) refers to stm32f10x_rtc.o(i.RTC_EnterConfigMode) for RTC_EnterConfigMode
    stm32f10x_rtc.o(i.RTC_SetCounter) refers to stm32f10x_rtc.o(i.RTC_ExitConfigMode) for RTC_ExitConfigMode
    stm32f10x_rtc.o(i.RTC_SetPrescaler) refers to stm32f10x_rtc.o(i.RTC_EnterConfigMode) for RTC_EnterConfigMode
    stm32f10x_rtc.o(i.RTC_SetPrescaler) refers to stm32f10x_rtc.o(i.RTC_ExitConfigMode) for RTC_ExitConfigMode
    stm32f10x_spi.o(i.I2S_Init) refers to stm32f10x_rcc.o(i.RCC_GetClocksFreq) for RCC_GetClocksFreq
    stm32f10x_spi.o(i.SPI_I2S_DeInit) refers to stm32f10x_rcc.o(i.RCC_APB2PeriphResetCmd) for RCC_APB2PeriphResetCmd
    stm32f10x_spi.o(i.SPI_I2S_DeInit) refers to stm32f10x_rcc.o(i.RCC_APB1PeriphResetCmd) for RCC_APB1PeriphResetCmd
    stm32f10x_tim.o(i.TIM_DeInit) refers to stm32f10x_rcc.o(i.RCC_APB2PeriphResetCmd) for RCC_APB2PeriphResetCmd
    stm32f10x_tim.o(i.TIM_DeInit) refers to stm32f10x_rcc.o(i.RCC_APB1PeriphResetCmd) for RCC_APB1PeriphResetCmd
    stm32f10x_tim.o(i.TIM_ETRClockMode1Config) refers to stm32f10x_tim.o(i.TIM_ETRConfig) for TIM_ETRConfig
    stm32f10x_tim.o(i.TIM_ETRClockMode2Config) refers to stm32f10x_tim.o(i.TIM_ETRConfig) for TIM_ETRConfig
    stm32f10x_tim.o(i.TIM_ICInit) refers to stm32f10x_tim.o(i.TI1_Config) for TI1_Config
    stm32f10x_tim.o(i.TIM_ICInit) refers to stm32f10x_tim.o(i.TIM_SetIC1Prescaler) for TIM_SetIC1Prescaler
    stm32f10x_tim.o(i.TIM_ICInit) refers to stm32f10x_tim.o(i.TI2_Config) for TI2_Config
    stm32f10x_tim.o(i.TIM_ICInit) refers to stm32f10x_tim.o(i.TIM_SetIC2Prescaler) for TIM_SetIC2Prescaler
    stm32f10x_tim.o(i.TIM_ICInit) refers to stm32f10x_tim.o(i.TI3_Config) for TI3_Config
    stm32f10x_tim.o(i.TIM_ICInit) refers to stm32f10x_tim.o(i.TIM_SetIC3Prescaler) for TIM_SetIC3Prescaler
    stm32f10x_tim.o(i.TIM_ICInit) refers to stm32f10x_tim.o(i.TI4_Config) for TI4_Config
    stm32f10x_tim.o(i.TIM_ICInit) refers to stm32f10x_tim.o(i.TIM_SetIC4Prescaler) for TIM_SetIC4Prescaler
    stm32f10x_tim.o(i.TIM_ITRxExternalClockConfig) refers to stm32f10x_tim.o(i.TIM_SelectInputTrigger) for TIM_SelectInputTrigger
    stm32f10x_tim.o(i.TIM_PWMIConfig) refers to stm32f10x_tim.o(i.TI1_Config) for TI1_Config
    stm32f10x_tim.o(i.TIM_PWMIConfig) refers to stm32f10x_tim.o(i.TIM_SetIC1Prescaler) for TIM_SetIC1Prescaler
    stm32f10x_tim.o(i.TIM_PWMIConfig) refers to stm32f10x_tim.o(i.TI2_Config) for TI2_Config
    stm32f10x_tim.o(i.TIM_PWMIConfig) refers to stm32f10x_tim.o(i.TIM_SetIC2Prescaler) for TIM_SetIC2Prescaler
    stm32f10x_tim.o(i.TIM_TIxExternalClockConfig) refers to stm32f10x_tim.o(i.TI2_Config) for TI2_Config
    stm32f10x_tim.o(i.TIM_TIxExternalClockConfig) refers to stm32f10x_tim.o(i.TI1_Config) for TI1_Config
    stm32f10x_tim.o(i.TIM_TIxExternalClockConfig) refers to stm32f10x_tim.o(i.TIM_SelectInputTrigger) for TIM_SelectInputTrigger
    stm32f10x_usart.o(i.USART_DeInit) refers to stm32f10x_rcc.o(i.RCC_APB2PeriphResetCmd) for RCC_APB2PeriphResetCmd
    stm32f10x_usart.o(i.USART_DeInit) refers to stm32f10x_rcc.o(i.RCC_APB1PeriphResetCmd) for RCC_APB1PeriphResetCmd
    stm32f10x_usart.o(i.USART_Init) refers to stm32f10x_rcc.o(i.RCC_GetClocksFreq) for RCC_GetClocksFreq
    stm32f10x_wwdg.o(i.WWDG_DeInit) refers to stm32f10x_rcc.o(i.RCC_APB1PeriphResetCmd) for RCC_APB1PeriphResetCmd
    system_stm32f10x.o(i.SetSysClock) refers to system_stm32f10x.o(i.SetSysClockTo72) for SetSysClockTo72
    system_stm32f10x.o(i.SystemCoreClockUpdate) refers to system_stm32f10x.o(.data) for SystemCoreClock
    system_stm32f10x.o(i.SystemInit) refers to system_stm32f10x.o(i.SetSysClock) for SetSysClock
    stm32_eth.o(i.ETH_DMAPTPRxDescChainInit) refers to stm32_eth.o(.data) for DMARxDescToGet
    stm32_eth.o(i.ETH_DMAPTPTxDescChainInit) refers to stm32_eth.o(.data) for DMATxDescToSet
    stm32_eth.o(i.ETH_DMARxDescChainInit) refers to stm32_eth.o(.data) for DMARxDescToGet
    stm32_eth.o(i.ETH_DMARxDescRingInit) refers to stm32_eth.o(.data) for DMARxDescToGet
    stm32_eth.o(i.ETH_DMATxDescChainInit) refers to stm32_eth.o(.data) for DMATxDescToSet
    stm32_eth.o(i.ETH_DMATxDescRingInit) refers to stm32_eth.o(.data) for DMATxDescToSet
    stm32_eth.o(i.ETH_DeInit) refers to stm32f10x_rcc.o(i.RCC_AHBPeriphResetCmd) for RCC_AHBPeriphResetCmd
    stm32_eth.o(i.ETH_DropRxPkt) refers to stm32_eth.o(.data) for DMARxDescToGet
    stm32_eth.o(i.ETH_GetRxPktSize) refers to stm32_eth.o(i.ETH_GetDMARxDescFrameLength) for ETH_GetDMARxDescFrameLength
    stm32_eth.o(i.ETH_GetRxPktSize) refers to stm32_eth.o(.data) for DMARxDescToGet
    stm32_eth.o(i.ETH_HandlePTPRxPkt) refers to stm32_eth.o(.data) for DMARxDescToGet
    stm32_eth.o(i.ETH_HandlePTPTxPkt) refers to stm32_eth.o(.data) for DMATxDescToSet
    stm32_eth.o(i.ETH_HandleRxPkt) refers to stm32_eth.o(.data) for DMARxDescToGet
    stm32_eth.o(i.ETH_HandleTxPkt) refers to stm32_eth.o(.data) for DMATxDescToSet
    stm32_eth.o(i.ETH_Init) refers to stm32f10x_rcc.o(i.RCC_GetClocksFreq) for RCC_GetClocksFreq
    stm32_eth.o(i.ETH_Init) refers to stm32_eth.o(i.ETH_WritePHYRegister) for ETH_WritePHYRegister
    stm32_eth.o(i.ETH_Init) refers to stm32_eth.o(i.ETH_Delay) for ETH_Delay
    stm32_eth.o(i.ETH_Init) refers to stm32_eth.o(i.ETH_ReadPHYRegister) for ETH_ReadPHYRegister
    stm32_eth.o(i.ETH_PHYLoopBackCmd) refers to stm32_eth.o(i.ETH_ReadPHYRegister) for ETH_ReadPHYRegister
    stm32_eth.o(i.ETH_PHYLoopBackCmd) refers to stm32_eth.o(i.ETH_WritePHYRegister) for ETH_WritePHYRegister
    stm32_eth.o(i.ETH_Start) refers to stm32_eth.o(i.ETH_MACTransmissionCmd) for ETH_MACTransmissionCmd
    stm32_eth.o(i.ETH_Start) refers to stm32_eth.o(i.ETH_FlushTransmitFIFO) for ETH_FlushTransmitFIFO
    stm32_eth.o(i.ETH_Start) refers to stm32_eth.o(i.ETH_MACReceptionCmd) for ETH_MACReceptionCmd
    stm32_eth.o(i.ETH_Start) refers to stm32_eth.o(i.ETH_DMATransmissionCmd) for ETH_DMATransmissionCmd
    stm32_eth.o(i.ETH_Start) refers to stm32_eth.o(i.ETH_DMAReceptionCmd) for ETH_DMAReceptionCmd
    startup_stm32f10x_cl.o(RESET) refers to startup_stm32f10x_cl.o(STACK) for __initial_sp
    startup_stm32f10x_cl.o(RESET) refers to startup_stm32f10x_cl.o(.text) for Reset_Handler
    startup_stm32f10x_cl.o(RESET) refers to stm32f10x_it.o(i.NMI_Handler) for NMI_Handler
    startup_stm32f10x_cl.o(RESET) refers to stm32f10x_it.o(i.HardFault_Handler) for HardFault_Handler
    startup_stm32f10x_cl.o(RESET) refers to stm32f10x_it.o(i.MemManage_Handler) for MemManage_Handler
    startup_stm32f10x_cl.o(RESET) refers to stm32f10x_it.o(i.BusFault_Handler) for BusFault_Handler
    startup_stm32f10x_cl.o(RESET) refers to stm32f10x_it.o(i.UsageFault_Handler) for UsageFault_Handler
    startup_stm32f10x_cl.o(RESET) refers to stm32f10x_it.o(i.SVC_Handler) for SVC_Handler
    startup_stm32f10x_cl.o(RESET) refers to stm32f10x_it.o(i.DebugMon_Handler) for DebugMon_Handler
    startup_stm32f10x_cl.o(RESET) refers to os_cpu_a.o(.text) for PendSV_Handler
    startup_stm32f10x_cl.o(RESET) refers to stm32f10x_it.o(i.SysTick_Handler) for SysTick_Handler
    startup_stm32f10x_cl.o(RESET) refers to stm32f10x_it.o(i.WWDG_IRQHandler) for WWDG_IRQHandler
    startup_stm32f10x_cl.o(RESET) refers to stm32f10x_it.o(i.PVD_IRQHandler) for PVD_IRQHandler
    startup_stm32f10x_cl.o(RESET) refers to stm32f10x_it.o(i.TAMPER_IRQHandler) for TAMPER_IRQHandler
    startup_stm32f10x_cl.o(RESET) refers to stm32f10x_it.o(i.RTC_IRQHandler) for RTC_IRQHandler
    startup_stm32f10x_cl.o(RESET) refers to stm32f10x_it.o(i.FLASH_IRQHandler) for FLASH_IRQHandler
    startup_stm32f10x_cl.o(RESET) refers to stm32f10x_it.o(i.RCC_IRQHandler) for RCC_IRQHandler
    startup_stm32f10x_cl.o(RESET) refers to stm32f10x_it.o(i.EXTI0_IRQHandler) for EXTI0_IRQHandler
    startup_stm32f10x_cl.o(RESET) refers to stm32f10x_it.o(i.EXTI1_IRQHandler) for EXTI1_IRQHandler
    startup_stm32f10x_cl.o(RESET) refers to stm32f10x_it.o(i.EXTI2_IRQHandler) for EXTI2_IRQHandler
    startup_stm32f10x_cl.o(RESET) refers to stm32f10x_it.o(i.EXTI3_IRQHandler) for EXTI3_IRQHandler
    startup_stm32f10x_cl.o(RESET) refers to stm32f10x_it.o(i.EXTI4_IRQHandler) for EXTI4_IRQHandler
    startup_stm32f10x_cl.o(RESET) refers to stm32f10x_it.o(i.DMA1_Channel1_IRQHandler) for DMA1_Channel1_IRQHandler
    startup_stm32f10x_cl.o(RESET) refers to stm32f10x_it.o(i.DMA1_Channel2_IRQHandler) for DMA1_Channel2_IRQHandler
    startup_stm32f10x_cl.o(RESET) refers to stm32f10x_it.o(i.DMA1_Channel3_IRQHandler) for DMA1_Channel3_IRQHandler
    startup_stm32f10x_cl.o(RESET) refers to stm32f10x_it.o(i.DMA1_Channel4_IRQHandler) for DMA1_Channel4_IRQHandler
    startup_stm32f10x_cl.o(RESET) refers to stm32f10x_it.o(i.DMA1_Channel5_IRQHandler) for DMA1_Channel5_IRQHandler
    startup_stm32f10x_cl.o(RESET) refers to stm32f10x_it.o(i.DMA1_Channel6_IRQHandler) for DMA1_Channel6_IRQHandler
    startup_stm32f10x_cl.o(RESET) refers to stm32f10x_it.o(i.DMA1_Channel7_IRQHandler) for DMA1_Channel7_IRQHandler
    startup_stm32f10x_cl.o(RESET) refers to stm32f10x_it.o(i.ADC1_2_IRQHandler) for ADC1_2_IRQHandler
    startup_stm32f10x_cl.o(RESET) refers to stm32f10x_it.o(i.CAN1_RX1_IRQHandler) for CAN1_RX1_IRQHandler
    startup_stm32f10x_cl.o(RESET) refers to stm32f10x_it.o(i.CAN1_SCE_IRQHandler) for CAN1_SCE_IRQHandler
    startup_stm32f10x_cl.o(RESET) refers to stm32f10x_it.o(i.EXTI9_5_IRQHandler) for EXTI9_5_IRQHandler
    startup_stm32f10x_cl.o(RESET) refers to stm32f10x_it.o(i.TIM1_BRK_IRQHandler) for TIM1_BRK_IRQHandler
    startup_stm32f10x_cl.o(RESET) refers to stm32f10x_it.o(i.TIM1_UP_IRQHandler) for TIM1_UP_IRQHandler
    startup_stm32f10x_cl.o(RESET) refers to stm32f10x_it.o(i.TIM1_TRG_COM_IRQHandler) for TIM1_TRG_COM_IRQHandler
    startup_stm32f10x_cl.o(RESET) refers to stm32f10x_it.o(i.TIM1_CC_IRQHandler) for TIM1_CC_IRQHandler
    startup_stm32f10x_cl.o(RESET) refers to stm32f10x_it.o(i.TIM2_IRQHandler) for TIM2_IRQHandler
    startup_stm32f10x_cl.o(RESET) refers to stm32f10x_it.o(i.TIM3_IRQHandler) for TIM3_IRQHandler
    startup_stm32f10x_cl.o(RESET) refers to stm32f10x_it.o(i.TIM4_IRQHandler) for TIM4_IRQHandler
    startup_stm32f10x_cl.o(RESET) refers to stm32f10x_it.o(i.I2C1_EV_IRQHandler) for I2C1_EV_IRQHandler
    startup_stm32f10x_cl.o(RESET) refers to stm32f10x_it.o(i.I2C1_ER_IRQHandler) for I2C1_ER_IRQHandler
    startup_stm32f10x_cl.o(RESET) refers to stm32f10x_it.o(i.I2C2_EV_IRQHandler) for I2C2_EV_IRQHandler
    startup_stm32f10x_cl.o(RESET) refers to stm32f10x_it.o(i.I2C2_ER_IRQHandler) for I2C2_ER_IRQHandler
    startup_stm32f10x_cl.o(RESET) refers to stm32f10x_it.o(i.SPI1_IRQHandler) for SPI1_IRQHandler
    startup_stm32f10x_cl.o(RESET) refers to stm32f10x_it.o(i.SPI2_IRQHandler) for SPI2_IRQHandler
    startup_stm32f10x_cl.o(RESET) refers to stm32f10x_it.o(i.USART1_IRQHandler) for USART1_IRQHandler
    startup_stm32f10x_cl.o(RESET) refers to stm32f10x_it.o(i.USART2_IRQHandler) for USART2_IRQHandler
    startup_stm32f10x_cl.o(RESET) refers to stm32f10x_it.o(i.USART3_IRQHandler) for USART3_IRQHandler
    startup_stm32f10x_cl.o(RESET) refers to stm32f10x_it.o(i.EXTI15_10_IRQHandler) for EXTI15_10_IRQHandler
    startup_stm32f10x_cl.o(RESET) refers to stm32f10x_it.o(i.RTCAlarm_IRQHandler) for RTCAlarm_IRQHandler
    startup_stm32f10x_cl.o(RESET) refers to stm32f10x_it.o(i.ETH_IRQHandler) for ETH_IRQHandler
    startup_stm32f10x_cl.o(.text) refers to system_stm32f10x.o(i.SystemInit) for SystemInit
    startup_stm32f10x_cl.o(.text) refers to entry.o(.ARM.Collect$$$$00000000) for __main
    os_core.o(i.OSEventNameGet) refers to os_cpu_a.o(.text) for OS_CPU_SR_Save
    os_core.o(i.OSEventNameGet) refers to os_core.o(i.OS_StrCopy) for OS_StrCopy
    os_core.o(i.OSEventNameGet) refers to os_core.o(.data) for OSIntNesting
    os_core.o(i.OSEventNameSet) refers to os_cpu_a.o(.text) for OS_CPU_SR_Save
    os_core.o(i.OSEventNameSet) refers to os_core.o(i.OS_StrLen) for OS_StrLen
    os_core.o(i.OSEventNameSet) refers to os_core.o(i.OS_StrCopy) for OS_StrCopy
    os_core.o(i.OSEventNameSet) refers to os_core.o(.data) for OSIntNesting
    os_core.o(i.OSInit) refers to os_cpu_c.o(i.OSInitHookBegin) for OSInitHookBegin
    os_core.o(i.OSInit) refers to os_core.o(i.OS_InitMisc) for OS_InitMisc
    os_core.o(i.OSInit) refers to os_core.o(i.OS_InitRdyList) for OS_InitRdyList
    os_core.o(i.OSInit) refers to os_core.o(i.OS_InitTCBList) for OS_InitTCBList
    os_core.o(i.OSInit) refers to os_core.o(i.OS_InitEventList) for OS_InitEventList
    os_core.o(i.OSInit) refers to os_mem.o(i.OS_MemInit) for OS_MemInit
    os_core.o(i.OSInit) refers to os_q.o(i.OS_QInit) for OS_QInit
    os_core.o(i.OSInit) refers to os_core.o(i.OS_InitTaskIdle) for OS_InitTaskIdle
    os_core.o(i.OSInit) refers to os_core.o(i.OS_InitTaskStat) for OS_InitTaskStat
    os_core.o(i.OSInit) refers to os_cpu_c.o(i.OSInitHookEnd) for OSInitHookEnd
    os_core.o(i.OSInit) refers to os_dbg.o(i.OSDebugInit) for OSDebugInit
    os_core.o(i.OSIntEnter) refers to os_core.o(.data) for OSRunning
    os_core.o(i.OSIntExit) refers to os_cpu_a.o(.text) for OS_CPU_SR_Save
    os_core.o(i.OSIntExit) refers to os_core.o(i.OS_SchedNew) for OS_SchedNew
    os_core.o(i.OSIntExit) refers to os_core.o(.data) for OSRunning
    os_core.o(i.OSIntExit) refers to os_core.o(.bss) for OSTCBPrioTbl
    os_core.o(i.OSSchedLock) refers to os_cpu_a.o(.text) for OS_CPU_SR_Save
    os_core.o(i.OSSchedLock) refers to os_core.o(.data) for OSRunning
    os_core.o(i.OSSchedUnlock) refers to os_cpu_a.o(.text) for OS_CPU_SR_Save
    os_core.o(i.OSSchedUnlock) refers to os_core.o(i.OS_Sched) for OS_Sched
    os_core.o(i.OSSchedUnlock) refers to os_core.o(.data) for OSRunning
    os_core.o(i.OSStart) refers to os_core.o(i.OS_SchedNew) for OS_SchedNew
    os_core.o(i.OSStart) refers to os_cpu_a.o(.text) for OSStartHighRdy
    os_core.o(i.OSStart) refers to os_core.o(.data) for OSRunning
    os_core.o(i.OSStart) refers to os_core.o(.bss) for OSTCBPrioTbl
    os_core.o(i.OSStatInit) refers to os_time.o(i.OSTimeDly) for OSTimeDly
    os_core.o(i.OSStatInit) refers to os_cpu_a.o(.text) for OS_CPU_SR_Save
    os_core.o(i.OSStatInit) refers to os_core.o(.data) for OSIdleCtr
    os_core.o(i.OSTimeTick) refers to os_cpu_c.o(i.OSTimeTickHook) for OSTimeTickHook
    os_core.o(i.OSTimeTick) refers to os_cpu_a.o(.text) for OS_CPU_SR_Save
    os_core.o(i.OSTimeTick) refers to os_core.o(.data) for OSTime
    os_core.o(i.OS_EventTaskRdy) refers to os_core.o(i.OS_EventTaskRemove) for OS_EventTaskRemove
    os_core.o(i.OS_EventTaskRdy) refers to os_core.o(.constdata) for OSUnMapTbl
    os_core.o(i.OS_EventTaskRdy) refers to os_core.o(.bss) for OSTCBPrioTbl
    os_core.o(i.OS_EventTaskRdy) refers to os_core.o(.data) for OSRdyGrp
    os_core.o(i.OS_EventTaskWait) refers to os_core.o(.data) for OSTCBCur
    os_core.o(i.OS_InitEventList) refers to os_core.o(i.OS_MemClr) for OS_MemClr
    os_core.o(i.OS_InitEventList) refers to os_core.o(.bss) for OSEventTbl
    os_core.o(i.OS_InitEventList) refers to os_core.o(.data) for OSEventFreeList
    os_core.o(i.OS_InitMisc) refers to os_core.o(.data) for OSTime
    os_core.o(i.OS_InitRdyList) refers to os_core.o(.data) for OSRdyGrp
    os_core.o(i.OS_InitTCBList) refers to os_core.o(i.OS_MemClr) for OS_MemClr
    os_core.o(i.OS_InitTCBList) refers to os_core.o(.bss) for OSTCBTbl
    os_core.o(i.OS_InitTCBList) refers to os_core.o(.data) for OSTCBList
    os_core.o(i.OS_InitTaskIdle) refers to os_task.o(i.OSTaskCreateExt) for OSTaskCreateExt
    os_core.o(i.OS_InitTaskIdle) refers to os_task.o(i.OSTaskNameSet) for OSTaskNameSet
    os_core.o(i.OS_InitTaskIdle) refers to os_core.o(.bss) for OSTaskIdleStk
    os_core.o(i.OS_InitTaskIdle) refers to os_core.o(i.OS_TaskIdle) for OS_TaskIdle
    os_core.o(i.OS_InitTaskStat) refers to os_task.o(i.OSTaskCreateExt) for OSTaskCreateExt
    os_core.o(i.OS_InitTaskStat) refers to os_task.o(i.OSTaskNameSet) for OSTaskNameSet
    os_core.o(i.OS_InitTaskStat) refers to os_core.o(.bss) for OSTaskStatStk
    os_core.o(i.OS_InitTaskStat) refers to os_core.o(i.OS_TaskStat) for OS_TaskStat
    os_core.o(i.OS_Sched) refers to os_cpu_a.o(.text) for OS_CPU_SR_Save
    os_core.o(i.OS_Sched) refers to os_core.o(i.OS_SchedNew) for OS_SchedNew
    os_core.o(i.OS_Sched) refers to os_core.o(.data) for OSIntNesting
    os_core.o(i.OS_Sched) refers to os_core.o(.bss) for OSTCBPrioTbl
    os_core.o(i.OS_SchedNew) refers to os_core.o(.constdata) for OSUnMapTbl
    os_core.o(i.OS_SchedNew) refers to os_core.o(.data) for OSRdyGrp
    os_core.o(i.OS_TCBInit) refers to os_cpu_a.o(.text) for OS_CPU_SR_Save
    os_core.o(i.OS_TCBInit) refers to os_cpu_c.o(i.OSTCBInitHook) for OSTCBInitHook
    os_core.o(i.OS_TCBInit) refers to os_cpu_c.o(i.OSTaskCreateHook) for OSTaskCreateHook
    os_core.o(i.OS_TCBInit) refers to os_core.o(.data) for OSTCBFreeList
    os_core.o(i.OS_TCBInit) refers to os_core.o(.bss) for OSTCBPrioTbl
    os_core.o(i.OS_TaskIdle) refers to os_cpu_a.o(.text) for OS_CPU_SR_Save
    os_core.o(i.OS_TaskIdle) refers to os_cpu_c.o(i.OSTaskIdleHook) for OSTaskIdleHook
    os_core.o(i.OS_TaskIdle) refers to os_core.o(.data) for OSIdleCtr
    os_core.o(i.OS_TaskStat) refers to os_time.o(i.OSTimeDly) for OSTimeDly
    os_core.o(i.OS_TaskStat) refers to os_task.o(i.OSTaskSuspend) for OSTaskSuspend
    os_core.o(i.OS_TaskStat) refers to os_cpu_a.o(.text) for OS_CPU_SR_Save
    os_core.o(i.OS_TaskStat) refers to os_cpu_c.o(i.OSTaskStatHook) for OSTaskStatHook
    os_core.o(i.OS_TaskStat) refers to os_core.o(i.OS_TaskStatStkChk) for OS_TaskStatStkChk
    os_core.o(i.OS_TaskStat) refers to os_core.o(.data) for OSStatRdy
    os_core.o(i.OS_TaskStatStkChk) refers to os_task.o(i.OSTaskStkChk) for OSTaskStkChk
    os_core.o(i.OS_TaskStatStkChk) refers to os_core.o(.bss) for OSTCBPrioTbl
    os_cpu_c.o(i.OS_CPU_SysTickInit) refers to system_stm32f10x.o(.data) for SystemCoreClock
    os_dbg.o(i.OSDebugInit) refers to os_dbg.o(.constdata) for OSDebugEn
    os_mbox.o(i.OSMboxAccept) refers to os_cpu_a.o(.text) for OS_CPU_SR_Save
    os_mbox.o(i.OSMboxCreate) refers to os_cpu_a.o(.text) for OS_CPU_SR_Save
    os_mbox.o(i.OSMboxCreate) refers to os_core.o(i.OS_EventWaitListInit) for OS_EventWaitListInit
    os_mbox.o(i.OSMboxCreate) refers to os_core.o(.data) for OSIntNesting
    os_mbox.o(i.OSMboxDel) refers to os_cpu_a.o(.text) for OS_CPU_SR_Save
    os_mbox.o(i.OSMboxDel) refers to os_core.o(i.OS_EventTaskRdy) for OS_EventTaskRdy
    os_mbox.o(i.OSMboxDel) refers to os_core.o(i.OS_Sched) for OS_Sched
    os_mbox.o(i.OSMboxDel) refers to os_core.o(.data) for OSIntNesting
    os_mbox.o(i.OSMboxPend) refers to os_cpu_a.o(.text) for OS_CPU_SR_Save
    os_mbox.o(i.OSMboxPend) refers to os_core.o(i.OS_EventTaskWait) for OS_EventTaskWait
    os_mbox.o(i.OSMboxPend) refers to os_core.o(i.OS_Sched) for OS_Sched
    os_mbox.o(i.OSMboxPend) refers to os_core.o(i.OS_EventTaskRemove) for OS_EventTaskRemove
    os_mbox.o(i.OSMboxPend) refers to os_core.o(.data) for OSIntNesting
    os_mbox.o(i.OSMboxPendAbort) refers to os_cpu_a.o(.text) for OS_CPU_SR_Save
    os_mbox.o(i.OSMboxPendAbort) refers to os_core.o(i.OS_EventTaskRdy) for OS_EventTaskRdy
    os_mbox.o(i.OSMboxPendAbort) refers to os_core.o(i.OS_Sched) for OS_Sched
    os_mbox.o(i.OSMboxPost) refers to os_cpu_a.o(.text) for OS_CPU_SR_Save
    os_mbox.o(i.OSMboxPost) refers to os_core.o(i.OS_EventTaskRdy) for OS_EventTaskRdy
    os_mbox.o(i.OSMboxPost) refers to os_core.o(i.OS_Sched) for OS_Sched
    os_mbox.o(i.OSMboxPostOpt) refers to os_cpu_a.o(.text) for OS_CPU_SR_Save
    os_mbox.o(i.OSMboxPostOpt) refers to os_core.o(i.OS_EventTaskRdy) for OS_EventTaskRdy
    os_mbox.o(i.OSMboxPostOpt) refers to os_core.o(i.OS_Sched) for OS_Sched
    os_mbox.o(i.OSMboxQuery) refers to os_cpu_a.o(.text) for OS_CPU_SR_Save
    os_mem.o(i.OSMemCreate) refers to os_cpu_a.o(.text) for OS_CPU_SR_Save
    os_mem.o(i.OSMemCreate) refers to os_core.o(.data) for OSMemFreeList
    os_mem.o(i.OSMemGet) refers to os_cpu_a.o(.text) for OS_CPU_SR_Save
    os_mem.o(i.OSMemNameGet) refers to os_cpu_a.o(.text) for OS_CPU_SR_Save
    os_mem.o(i.OSMemNameGet) refers to os_core.o(i.OS_StrCopy) for OS_StrCopy
    os_mem.o(i.OSMemNameGet) refers to os_core.o(.data) for OSIntNesting
    os_mem.o(i.OSMemNameSet) refers to os_cpu_a.o(.text) for OS_CPU_SR_Save
    os_mem.o(i.OSMemNameSet) refers to os_core.o(i.OS_StrLen) for OS_StrLen
    os_mem.o(i.OSMemNameSet) refers to os_core.o(i.OS_StrCopy) for OS_StrCopy
    os_mem.o(i.OSMemNameSet) refers to os_core.o(.data) for OSIntNesting
    os_mem.o(i.OSMemPut) refers to os_cpu_a.o(.text) for OS_CPU_SR_Save
    os_mem.o(i.OSMemQuery) refers to os_cpu_a.o(.text) for OS_CPU_SR_Save
    os_mem.o(i.OS_MemInit) refers to os_core.o(i.OS_MemClr) for OS_MemClr
    os_mem.o(i.OS_MemInit) refers to os_core.o(.bss) for OSMemTbl
    os_mem.o(i.OS_MemInit) refers to os_core.o(.data) for OSMemFreeList
    os_q.o(i.OSQAccept) refers to os_cpu_a.o(.text) for OS_CPU_SR_Save
    os_q.o(i.OSQCreate) refers to os_cpu_a.o(.text) for OS_CPU_SR_Save
    os_q.o(i.OSQCreate) refers to os_core.o(i.OS_EventWaitListInit) for OS_EventWaitListInit
    os_q.o(i.OSQCreate) refers to os_core.o(.data) for OSIntNesting
    os_q.o(i.OSQDel) refers to os_cpu_a.o(.text) for OS_CPU_SR_Save
    os_q.o(i.OSQDel) refers to os_core.o(i.OS_EventTaskRdy) for OS_EventTaskRdy
    os_q.o(i.OSQDel) refers to os_core.o(i.OS_Sched) for OS_Sched
    os_q.o(i.OSQDel) refers to os_core.o(.data) for OSIntNesting
    os_q.o(i.OSQFlush) refers to os_cpu_a.o(.text) for OS_CPU_SR_Save
    os_q.o(i.OSQPend) refers to os_cpu_a.o(.text) for OS_CPU_SR_Save
    os_q.o(i.OSQPend) refers to os_core.o(i.OS_EventTaskWait) for OS_EventTaskWait
    os_q.o(i.OSQPend) refers to os_core.o(i.OS_Sched) for OS_Sched
    os_q.o(i.OSQPend) refers to os_core.o(i.OS_EventTaskRemove) for OS_EventTaskRemove
    os_q.o(i.OSQPend) refers to os_core.o(.data) for OSIntNesting
    os_q.o(i.OSQPendAbort) refers to os_cpu_a.o(.text) for OS_CPU_SR_Save
    os_q.o(i.OSQPendAbort) refers to os_core.o(i.OS_EventTaskRdy) for OS_EventTaskRdy
    os_q.o(i.OSQPendAbort) refers to os_core.o(i.OS_Sched) for OS_Sched
    os_q.o(i.OSQPost) refers to os_cpu_a.o(.text) for OS_CPU_SR_Save
    os_q.o(i.OSQPost) refers to os_core.o(i.OS_EventTaskRdy) for OS_EventTaskRdy
    os_q.o(i.OSQPost) refers to os_core.o(i.OS_Sched) for OS_Sched
    os_q.o(i.OSQPostFront) refers to os_cpu_a.o(.text) for OS_CPU_SR_Save
    os_q.o(i.OSQPostFront) refers to os_core.o(i.OS_EventTaskRdy) for OS_EventTaskRdy
    os_q.o(i.OSQPostFront) refers to os_core.o(i.OS_Sched) for OS_Sched
    os_q.o(i.OSQPostOpt) refers to os_cpu_a.o(.text) for OS_CPU_SR_Save
    os_q.o(i.OSQPostOpt) refers to os_core.o(i.OS_EventTaskRdy) for OS_EventTaskRdy
    os_q.o(i.OSQPostOpt) refers to os_core.o(i.OS_Sched) for OS_Sched
    os_q.o(i.OSQQuery) refers to os_cpu_a.o(.text) for OS_CPU_SR_Save
    os_q.o(i.OS_QInit) refers to os_core.o(i.OS_MemClr) for OS_MemClr
    os_q.o(i.OS_QInit) refers to os_core.o(.bss) for OSQTbl
    os_q.o(i.OS_QInit) refers to os_core.o(.data) for OSQFreeList
    os_sem.o(i.OSSemAccept) refers to os_cpu_a.o(.text) for OS_CPU_SR_Save
    os_sem.o(i.OSSemCreate) refers to os_cpu_a.o(.text) for OS_CPU_SR_Save
    os_sem.o(i.OSSemCreate) refers to os_core.o(i.OS_EventWaitListInit) for OS_EventWaitListInit
    os_sem.o(i.OSSemCreate) refers to os_core.o(.data) for OSIntNesting
    os_sem.o(i.OSSemDel) refers to os_cpu_a.o(.text) for OS_CPU_SR_Save
    os_sem.o(i.OSSemDel) refers to os_core.o(i.OS_EventTaskRdy) for OS_EventTaskRdy
    os_sem.o(i.OSSemDel) refers to os_core.o(i.OS_Sched) for OS_Sched
    os_sem.o(i.OSSemDel) refers to os_core.o(.data) for OSIntNesting
    os_sem.o(i.OSSemPend) refers to os_cpu_a.o(.text) for OS_CPU_SR_Save
    os_sem.o(i.OSSemPend) refers to os_core.o(i.OS_EventTaskWait) for OS_EventTaskWait
    os_sem.o(i.OSSemPend) refers to os_core.o(i.OS_Sched) for OS_Sched
    os_sem.o(i.OSSemPend) refers to os_core.o(i.OS_EventTaskRemove) for OS_EventTaskRemove
    os_sem.o(i.OSSemPend) refers to os_core.o(.data) for OSIntNesting
    os_sem.o(i.OSSemPendAbort) refers to os_cpu_a.o(.text) for OS_CPU_SR_Save
    os_sem.o(i.OSSemPendAbort) refers to os_core.o(i.OS_EventTaskRdy) for OS_EventTaskRdy
    os_sem.o(i.OSSemPendAbort) refers to os_core.o(i.OS_Sched) for OS_Sched
    os_sem.o(i.OSSemPost) refers to os_cpu_a.o(.text) for OS_CPU_SR_Save
    os_sem.o(i.OSSemPost) refers to os_core.o(i.OS_EventTaskRdy) for OS_EventTaskRdy
    os_sem.o(i.OSSemPost) refers to os_core.o(i.OS_Sched) for OS_Sched
    os_sem.o(i.OSSemQuery) refers to os_cpu_a.o(.text) for OS_CPU_SR_Save
    os_sem.o(i.OSSemSet) refers to os_cpu_a.o(.text) for OS_CPU_SR_Save
    os_task.o(i.OSTaskChangePrio) refers to os_cpu_a.o(.text) for OS_CPU_SR_Save
    os_task.o(i.OSTaskChangePrio) refers to os_core.o(i.OS_Sched) for OS_Sched
    os_task.o(i.OSTaskChangePrio) refers to os_core.o(.bss) for OSTCBPrioTbl
    os_task.o(i.OSTaskChangePrio) refers to os_core.o(.data) for OSTCBCur
    os_task.o(i.OSTaskCreate) refers to os_cpu_a.o(.text) for OS_CPU_SR_Save
    os_task.o(i.OSTaskCreate) refers to os_cpu_c.o(i.OSTaskStkInit) for OSTaskStkInit
    os_task.o(i.OSTaskCreate) refers to os_core.o(i.OS_TCBInit) for OS_TCBInit
    os_task.o(i.OSTaskCreate) refers to os_core.o(i.OS_Sched) for OS_Sched
    os_task.o(i.OSTaskCreate) refers to os_core.o(.data) for OSIntNesting
    os_task.o(i.OSTaskCreate) refers to os_core.o(.bss) for OSTCBPrioTbl
    os_task.o(i.OSTaskCreateExt) refers to os_cpu_a.o(.text) for OS_CPU_SR_Save
    os_task.o(i.OSTaskCreateExt) refers to os_task.o(i.OS_TaskStkClr) for OS_TaskStkClr
    os_task.o(i.OSTaskCreateExt) refers to os_cpu_c.o(i.OSTaskStkInit) for OSTaskStkInit
    os_task.o(i.OSTaskCreateExt) refers to os_core.o(i.OS_TCBInit) for OS_TCBInit
    os_task.o(i.OSTaskCreateExt) refers to os_core.o(i.OS_Sched) for OS_Sched
    os_task.o(i.OSTaskCreateExt) refers to os_core.o(.data) for OSIntNesting
    os_task.o(i.OSTaskCreateExt) refers to os_core.o(.bss) for OSTCBPrioTbl
    os_task.o(i.OSTaskDel) refers to os_cpu_a.o(.text) for OS_CPU_SR_Save
    os_task.o(i.OSTaskDel) refers to os_core.o(i.OS_EventTaskRemove) for OS_EventTaskRemove
    os_task.o(i.OSTaskDel) refers to os_core.o(i.OS_Dummy) for OS_Dummy
    os_task.o(i.OSTaskDel) refers to os_cpu_c.o(i.OSTaskDelHook) for OSTaskDelHook
    os_task.o(i.OSTaskDel) refers to os_core.o(i.OS_Sched) for OS_Sched
    os_task.o(i.OSTaskDel) refers to os_core.o(.data) for OSIntNesting
    os_task.o(i.OSTaskDel) refers to os_core.o(.bss) for OSTCBPrioTbl
    os_task.o(i.OSTaskDelReq) refers to os_cpu_a.o(.text) for OS_CPU_SR_Save
    os_task.o(i.OSTaskDelReq) refers to os_core.o(.data) for OSTCBCur
    os_task.o(i.OSTaskDelReq) refers to os_core.o(.bss) for OSTCBPrioTbl
    os_task.o(i.OSTaskNameGet) refers to os_cpu_a.o(.text) for OS_CPU_SR_Save
    os_task.o(i.OSTaskNameGet) refers to os_core.o(i.OS_StrCopy) for OS_StrCopy
    os_task.o(i.OSTaskNameGet) refers to os_core.o(.data) for OSIntNesting
    os_task.o(i.OSTaskNameGet) refers to os_core.o(.bss) for OSTCBPrioTbl
    os_task.o(i.OSTaskNameSet) refers to os_cpu_a.o(.text) for OS_CPU_SR_Save
    os_task.o(i.OSTaskNameSet) refers to os_core.o(i.OS_StrLen) for OS_StrLen
    os_task.o(i.OSTaskNameSet) refers to os_core.o(i.OS_StrCopy) for OS_StrCopy
    os_task.o(i.OSTaskNameSet) refers to os_core.o(.data) for OSIntNesting
    os_task.o(i.OSTaskNameSet) refers to os_core.o(.bss) for OSTCBPrioTbl
    os_task.o(i.OSTaskQuery) refers to os_cpu_a.o(.text) for OS_CPU_SR_Save
    os_task.o(i.OSTaskQuery) refers to os_core.o(i.OS_MemCopy) for OS_MemCopy
    os_task.o(i.OSTaskQuery) refers to os_core.o(.data) for OSTCBCur
    os_task.o(i.OSTaskQuery) refers to os_core.o(.bss) for OSTCBPrioTbl
    os_task.o(i.OSTaskResume) refers to os_cpu_a.o(.text) for OS_CPU_SR_Save
    os_task.o(i.OSTaskResume) refers to os_core.o(i.OS_Sched) for OS_Sched
    os_task.o(i.OSTaskResume) refers to os_core.o(.bss) for OSTCBPrioTbl
    os_task.o(i.OSTaskResume) refers to os_core.o(.data) for OSRdyGrp
    os_task.o(i.OSTaskStkChk) refers to os_cpu_a.o(.text) for OS_CPU_SR_Save
    os_task.o(i.OSTaskStkChk) refers to os_core.o(.data) for OSTCBCur
    os_task.o(i.OSTaskStkChk) refers to os_core.o(.bss) for OSTCBPrioTbl
    os_task.o(i.OSTaskSuspend) refers to os_cpu_a.o(.text) for OS_CPU_SR_Save
    os_task.o(i.OSTaskSuspend) refers to os_core.o(i.OS_Sched) for OS_Sched
    os_task.o(i.OSTaskSuspend) refers to os_core.o(.data) for OSTCBCur
    os_task.o(i.OSTaskSuspend) refers to os_core.o(.bss) for OSTCBPrioTbl
    os_time.o(i.OSTimeDly) refers to os_cpu_a.o(.text) for OS_CPU_SR_Save
    os_time.o(i.OSTimeDly) refers to os_core.o(i.OS_Sched) for OS_Sched
    os_time.o(i.OSTimeDly) refers to os_core.o(.data) for OSIntNesting
    os_time.o(i.OSTimeDlyHMSM) refers to os_time.o(i.OSTimeDly) for OSTimeDly
    os_time.o(i.OSTimeDlyHMSM) refers to os_core.o(.data) for OSIntNesting
    os_time.o(i.OSTimeDlyResume) refers to os_cpu_a.o(.text) for OS_CPU_SR_Save
    os_time.o(i.OSTimeDlyResume) refers to os_core.o(i.OS_Sched) for OS_Sched
    os_time.o(i.OSTimeDlyResume) refers to os_core.o(.bss) for OSTCBPrioTbl
    os_time.o(i.OSTimeDlyResume) refers to os_core.o(.data) for OSRdyGrp
    os_time.o(i.OSTimeGet) refers to os_cpu_a.o(.text) for OS_CPU_SR_Save
    os_time.o(i.OSTimeGet) refers to os_core.o(.data) for OSTime
    os_time.o(i.OSTimeSet) refers to os_cpu_a.o(.text) for OS_CPU_SR_Save
    os_time.o(i.OSTimeSet) refers to os_core.o(.data) for OSTime
    os_cpu_a.o(.text) refers to os_core.o(.data) for OSRunning
    os_cpu_a.o(.text) refers to os_cpu_c.o(i.OSTaskSwHook) for OSTaskSwHook
    ethernetif.o(i.ETH_GetCurrentTxBuffer) refers to stm32_eth.o(.data) for DMATxDescToSet
    ethernetif.o(i.ETH_RxPkt_ChainMode) refers to stm32_eth.o(.data) for DMARxDescToGet
    ethernetif.o(i.ETH_TxPkt_ChainMode) refers to stm32_eth.o(.data) for DMATxDescToSet
    ethernetif.o(i.Set_MAC_Address) refers to stm32_eth.o(i.ETH_MACAddressConfig) for ETH_MACAddressConfig
    ethernetif.o(i.Set_MAC_Address) refers to ethernetif.o(.data) for MACaddr
    ethernetif.o(i.ethernetif_init) refers to printf3.o(i.__0printf$3) for __2printf
    ethernetif.o(i.ethernetif_init) refers to mem.o(i.mem_malloc) for mem_malloc
    ethernetif.o(i.ethernetif_init) refers to ethernetif.o(i.low_level_init) for low_level_init
    ethernetif.o(i.ethernetif_init) refers to etharp.o(i.etharp_output) for etharp_output
    ethernetif.o(i.ethernetif_init) refers to ethernetif.o(i.low_level_output) for low_level_output
    ethernetif.o(i.ethernetif_input) refers to ethernetif.o(i.low_level_input) for low_level_input
    ethernetif.o(i.ethernetif_input) refers to pbuf.o(i.pbuf_free) for pbuf_free
    ethernetif.o(i.low_level_init) refers to stm32_eth.o(i.ETH_DMATxDescChainInit) for ETH_DMATxDescChainInit
    ethernetif.o(i.low_level_init) refers to stm32_eth.o(i.ETH_DMARxDescChainInit) for ETH_DMARxDescChainInit
    ethernetif.o(i.low_level_init) refers to stm32_eth.o(i.ETH_DMARxDescReceiveITConfig) for ETH_DMARxDescReceiveITConfig
    ethernetif.o(i.low_level_init) refers to stm32_eth.o(i.ETH_DMATxDescChecksumInsertionConfig) for ETH_DMATxDescChecksumInsertionConfig
    ethernetif.o(i.low_level_init) refers to stm32_eth.o(i.ETH_Start) for ETH_Start
    ethernetif.o(i.low_level_init) refers to ethernetif.o(.data) for MACaddr
    ethernetif.o(i.low_level_init) refers to ethernetif.o(.bss) for Tx_Buff
    ethernetif.o(i.low_level_input) refers to ethernetif.o(i.ETH_RxPkt_ChainMode) for ETH_RxPkt_ChainMode
    ethernetif.o(i.low_level_input) refers to pbuf.o(i.pbuf_alloc) for pbuf_alloc
    ethernetif.o(i.low_level_input) refers to memcpya.o(.text) for __aeabi_memcpy
    ethernetif.o(i.low_level_output) refers to ethernetif.o(i.ETH_GetCurrentTxBuffer) for ETH_GetCurrentTxBuffer
    ethernetif.o(i.low_level_output) refers to memcpya.o(.text) for __aeabi_memcpy
    ethernetif.o(i.low_level_output) refers to ethernetif.o(i.ETH_TxPkt_ChainMode) for ETH_TxPkt_ChainMode
    ethernetif.o(.data) refers to ethernetif.o(.bss) for DMATxDscrTab
    sys_arch.o(i.sys_arch_mbox_fetch) refers to os_time.o(i.OSTimeGet) for OSTimeGet
    sys_arch.o(i.sys_arch_mbox_fetch) refers to os_q.o(i.OSQPend) for OSQPend
    sys_arch.o(i.sys_arch_mbox_fetch) refers to printf3.o(i.__0printf$3) for __2printf
    sys_arch.o(i.sys_arch_mbox_fetch) refers to sys_arch.o(.constdata) for pvNullPointer
    sys_arch.o(i.sys_arch_sem_wait) refers to os_time.o(i.OSTimeGet) for OSTimeGet
    sys_arch.o(i.sys_arch_sem_wait) refers to os_sem.o(i.OSSemPend) for OSSemPend
    sys_arch.o(i.sys_arch_timeouts) refers to os_task.o(i.OSTaskQuery) for OSTaskQuery
    sys_arch.o(i.sys_arch_timeouts) refers to sys_arch.o(.data) for null_timeouts
    sys_arch.o(i.sys_arch_timeouts) refers to sys_arch.o(.bss) for lwip_timeouts
    sys_arch.o(i.sys_init) refers to os_mem.o(i.OSMemCreate) for OSMemCreate
    sys_arch.o(i.sys_init) refers to printf3.o(i.__0printf$3) for __2printf
    sys_arch.o(i.sys_init) refers to sys_arch.o(.bss) for pcQueueMemoryPool
    sys_arch.o(i.sys_init) refers to sys_arch.o(.data) for pQueueMem
    sys_arch.o(i.sys_mbox_free) refers to printf3.o(i.__0printf$3) for __2printf
    sys_arch.o(i.sys_mbox_free) refers to os_q.o(i.OSQFlush) for OSQFlush
    sys_arch.o(i.sys_mbox_free) refers to os_q.o(i.OSQDel) for OSQDel
    sys_arch.o(i.sys_mbox_free) refers to os_mem.o(i.OSMemPut) for OSMemPut
    sys_arch.o(i.sys_mbox_free) refers to sys_arch.o(.data) for pQueueMem
    sys_arch.o(i.sys_mbox_new) refers to os_mem.o(i.OSMemGet) for OSMemGet
    sys_arch.o(i.sys_mbox_new) refers to printf3.o(i.__0printf$3) for __2printf
    sys_arch.o(i.sys_mbox_new) refers to os_q.o(i.OSQCreate) for OSQCreate
    sys_arch.o(i.sys_mbox_new) refers to os_mem.o(i.OSMemPut) for OSMemPut
    sys_arch.o(i.sys_mbox_new) refers to sys_arch.o(.data) for pQueueMem
    sys_arch.o(i.sys_mbox_post) refers to os_time.o(i.OSTimeDly) for OSTimeDly
    sys_arch.o(i.sys_mbox_post) refers to os_q.o(i.OSQPost) for OSQPost
    sys_arch.o(i.sys_mbox_post) refers to sys_arch.o(.constdata) for pvNullPointer
    sys_arch.o(i.sys_mbox_trypost) refers to os_q.o(i.OSQPost) for OSQPost
    sys_arch.o(i.sys_mbox_trypost) refers to sys_arch.o(.constdata) for pvNullPointer
    sys_arch.o(i.sys_sem_free) refers to os_sem.o(i.OSSemDel) for OSSemDel
    sys_arch.o(i.sys_sem_free) refers to printf3.o(i.__0printf$3) for __2printf
    sys_arch.o(i.sys_sem_new) refers to os_sem.o(i.OSSemCreate) for OSSemCreate
    sys_arch.o(i.sys_sem_new) refers to printf3.o(i.__0printf$3) for __2printf
    sys_arch.o(i.sys_sem_signal) refers to os_sem.o(i.OSSemPost) for OSSemPost
    sys_arch.o(i.sys_thread_new) refers to os_task.o(i.OSTaskCreateExt) for OSTaskCreateExt
    sys_arch.o(i.sys_thread_new) refers to os_task.o(i.OSTaskNameSet) for OSTaskNameSet
    sys_arch.o(i.sys_thread_new) refers to sys_arch.o(.bss) for LWIP_TASK_STK
    tcpip.o(i.arp_timer) refers to etharp.o(i.etharp_tmr) for etharp_tmr
    tcpip.o(i.arp_timer) refers to sys.o(i.sys_timeout) for sys_timeout
    tcpip.o(i.ip_reass_timer) refers to ip_frag.o(i.ip_reass_tmr) for ip_reass_tmr
    tcpip.o(i.ip_reass_timer) refers to sys.o(i.sys_timeout) for sys_timeout
    tcpip.o(i.mem_free_callback) refers to tcpip.o(i.tcpip_callback_with_block) for tcpip_callback_with_block
    tcpip.o(i.mem_free_callback) refers to mem.o(i.mem_free) for mem_free
    tcpip.o(i.pbuf_free_callback) refers to tcpip.o(i.tcpip_callback_with_block) for tcpip_callback_with_block
    tcpip.o(i.pbuf_free_callback) refers to tcpip.o(i.pbuf_free_int) for pbuf_free_int
    tcpip.o(i.pbuf_free_int) refers to pbuf.o(i.pbuf_free) for pbuf_free
    tcpip.o(i.tcp_timer_needed) refers to sys.o(i.sys_timeout) for sys_timeout
    tcpip.o(i.tcp_timer_needed) refers to tcpip.o(.data) for tcpip_tcp_timer_active
    tcpip.o(i.tcp_timer_needed) refers to tcp.o(.data) for tcp_active_pcbs
    tcpip.o(i.tcp_timer_needed) refers to tcpip.o(i.tcpip_tcp_timer) for tcpip_tcp_timer
    tcpip.o(i.tcpip_callback_with_block) refers to memp.o(i.memp_malloc) for memp_malloc
    tcpip.o(i.tcpip_callback_with_block) refers to sys_arch.o(i.sys_mbox_post) for sys_mbox_post
    tcpip.o(i.tcpip_callback_with_block) refers to sys_arch.o(i.sys_mbox_trypost) for sys_mbox_trypost
    tcpip.o(i.tcpip_callback_with_block) refers to memp.o(i.memp_free) for memp_free
    tcpip.o(i.tcpip_callback_with_block) refers to tcpip.o(.data) for mbox
    tcpip.o(i.tcpip_init) refers to init.o(i.lwip_init) for lwip_init
    tcpip.o(i.tcpip_init) refers to sys_arch.o(i.sys_mbox_new) for sys_mbox_new
    tcpip.o(i.tcpip_init) refers to sys_arch.o(i.sys_thread_new) for sys_thread_new
    tcpip.o(i.tcpip_init) refers to tcpip.o(.data) for tcpip_init_done
    tcpip.o(i.tcpip_init) refers to tcpip.o(i.tcpip_thread) for tcpip_thread
    tcpip.o(i.tcpip_input) refers to memp.o(i.memp_malloc) for memp_malloc
    tcpip.o(i.tcpip_input) refers to sys_arch.o(i.sys_mbox_trypost) for sys_mbox_trypost
    tcpip.o(i.tcpip_input) refers to memp.o(i.memp_free) for memp_free
    tcpip.o(i.tcpip_input) refers to tcpip.o(.data) for mbox
    tcpip.o(i.tcpip_tcp_timer) refers to tcp.o(i.tcp_tmr) for tcp_tmr
    tcpip.o(i.tcpip_tcp_timer) refers to sys.o(i.sys_timeout) for sys_timeout
    tcpip.o(i.tcpip_tcp_timer) refers to tcp.o(.data) for tcp_active_pcbs
    tcpip.o(i.tcpip_tcp_timer) refers to tcpip.o(.data) for tcpip_tcp_timer_active
    tcpip.o(i.tcpip_thread) refers to sys.o(i.sys_timeout) for sys_timeout
    tcpip.o(i.tcpip_thread) refers to sys.o(i.sys_mbox_fetch) for sys_mbox_fetch
    tcpip.o(i.tcpip_thread) refers to etharp.o(i.ethernet_input) for ethernet_input
    tcpip.o(i.tcpip_thread) refers to ip.o(i.ip_input) for ip_input
    tcpip.o(i.tcpip_thread) refers to memp.o(i.memp_free) for memp_free
    tcpip.o(i.tcpip_thread) refers to sys.o(i.sys_untimeout) for sys_untimeout
    tcpip.o(i.tcpip_thread) refers to tcpip.o(i.ip_reass_timer) for ip_reass_timer
    tcpip.o(i.tcpip_thread) refers to tcpip.o(i.arp_timer) for arp_timer
    tcpip.o(i.tcpip_thread) refers to tcpip.o(.data) for tcpip_init_done
    tcpip.o(i.tcpip_timeout) refers to memp.o(i.memp_malloc) for memp_malloc
    tcpip.o(i.tcpip_timeout) refers to sys_arch.o(i.sys_mbox_post) for sys_mbox_post
    tcpip.o(i.tcpip_timeout) refers to tcpip.o(.data) for mbox
    tcpip.o(i.tcpip_untimeout) refers to memp.o(i.memp_malloc) for memp_malloc
    tcpip.o(i.tcpip_untimeout) refers to sys_arch.o(i.sys_mbox_post) for sys_mbox_post
    tcpip.o(i.tcpip_untimeout) refers to tcpip.o(.data) for mbox
    init.o(i.lwip_init) refers to sys_arch.o(i.sys_init) for sys_init
    init.o(i.lwip_init) refers to mem.o(i.mem_init) for mem_init
    init.o(i.lwip_init) refers to memp.o(i.memp_init) for memp_init
    mem.o(i.mem_calloc) refers to mem.o(i.mem_malloc) for mem_malloc
    mem.o(i.mem_calloc) refers to memseta.o(.text) for __aeabi_memclr
    mem.o(i.mem_free) refers to printf3.o(i.__0printf$3) for __2printf
    mem.o(i.mem_free) refers to sys_arch.o(i.sys_arch_sem_wait) for sys_arch_sem_wait
    mem.o(i.mem_free) refers to mem.o(i.plug_holes) for plug_holes
    mem.o(i.mem_free) refers to sys_arch.o(i.sys_sem_signal) for sys_sem_signal
    mem.o(i.mem_free) refers to mem.o(.data) for ram
    mem.o(i.mem_init) refers to sys_arch.o(i.sys_sem_new) for sys_sem_new
    mem.o(i.mem_init) refers to mem.o(.bss) for ram_heap
    mem.o(i.mem_init) refers to mem.o(.data) for ram
    mem.o(i.mem_malloc) refers to sys_arch.o(i.sys_arch_sem_wait) for sys_arch_sem_wait
    mem.o(i.mem_malloc) refers to printf3.o(i.__0printf$3) for __2printf
    mem.o(i.mem_malloc) refers to sys_arch.o(i.sys_sem_signal) for sys_sem_signal
    mem.o(i.mem_malloc) refers to mem.o(.data) for mem_sem
    mem.o(i.mem_realloc) refers to printf3.o(i.__0printf$3) for __2printf
    mem.o(i.mem_realloc) refers to sys_arch.o(i.sys_arch_sem_wait) for sys_arch_sem_wait
    mem.o(i.mem_realloc) refers to sys_arch.o(i.sys_sem_signal) for sys_sem_signal
    mem.o(i.mem_realloc) refers to mem.o(.data) for ram
    mem.o(i.plug_holes) refers to printf3.o(i.__0printf$3) for __2printf
    mem.o(i.plug_holes) refers to mem.o(.data) for ram
    memp.o(i.memp_free) refers to printf3.o(i.__0printf$3) for __2printf
    memp.o(i.memp_free) refers to memp.o(.bss) for memp_tab
    memp.o(i.memp_init) refers to memp.o(.bss) for memp_memory
    memp.o(i.memp_init) refers to memp.o(.constdata) for memp_sizes
    memp.o(i.memp_malloc) refers to printf3.o(i.__0printf$3) for __2printf
    memp.o(i.memp_malloc) refers to memp.o(.bss) for memp_tab
    netif.o(i.netif_add) refers to netif.o(i.netif_set_addr) for netif_set_addr
    netif.o(i.netif_add) refers to netif.o(.data) for netifnum
    netif.o(i.netif_find) refers to netif.o(.data) for netif_list
    netif.o(i.netif_remove) refers to netif.o(i.netif_set_default) for netif_set_default
    netif.o(i.netif_remove) refers to netif.o(.data) for netif_list
    netif.o(i.netif_set_addr) refers to netif.o(i.netif_set_ipaddr) for netif_set_ipaddr
    netif.o(i.netif_set_addr) refers to netif.o(i.netif_set_netmask) for netif_set_netmask
    netif.o(i.netif_set_addr) refers to netif.o(i.netif_set_gw) for netif_set_gw
    netif.o(i.netif_set_default) refers to netif.o(.data) for netif_default
    netif.o(i.netif_set_ipaddr) refers to tcp.o(i.tcp_abandon) for tcp_abandon
    netif.o(i.netif_set_ipaddr) refers to tcp.o(.data) for tcp_active_pcbs
    netif.o(i.netif_set_up) refers to etharp.o(i.etharp_request) for etharp_request
    pbuf.o(i.pbuf_alloc) refers to printf3.o(i.__0printf$3) for __2printf
    pbuf.o(i.pbuf_alloc) refers to memp.o(i.memp_malloc) for memp_malloc
    pbuf.o(i.pbuf_alloc) refers to pbuf.o(i.pbuf_free) for pbuf_free
    pbuf.o(i.pbuf_alloc) refers to mem.o(i.mem_malloc) for mem_malloc
    pbuf.o(i.pbuf_cat) refers to printf3.o(i.__0printf$3) for __2printf
    pbuf.o(i.pbuf_chain) refers to pbuf.o(i.pbuf_cat) for pbuf_cat
    pbuf.o(i.pbuf_chain) refers to pbuf.o(i.pbuf_ref) for pbuf_ref
    pbuf.o(i.pbuf_coalesce) refers to pbuf.o(i.pbuf_alloc) for pbuf_alloc
    pbuf.o(i.pbuf_coalesce) refers to pbuf.o(i.pbuf_copy) for pbuf_copy
    pbuf.o(i.pbuf_coalesce) refers to printf3.o(i.__0printf$3) for __2printf
    pbuf.o(i.pbuf_coalesce) refers to pbuf.o(i.pbuf_free) for pbuf_free
    pbuf.o(i.pbuf_copy) refers to printf3.o(i.__0printf$3) for __2printf
    pbuf.o(i.pbuf_copy) refers to memcpya.o(.text) for __aeabi_memcpy
    pbuf.o(i.pbuf_copy_partial) refers to printf3.o(i.__0printf$3) for __2printf
    pbuf.o(i.pbuf_copy_partial) refers to memcpya.o(.text) for __aeabi_memcpy
    pbuf.o(i.pbuf_dechain) refers to printf3.o(i.__0printf$3) for __2printf
    pbuf.o(i.pbuf_dechain) refers to pbuf.o(i.pbuf_free) for pbuf_free
    pbuf.o(i.pbuf_free) refers to printf3.o(i.__0printf$3) for __2printf
    pbuf.o(i.pbuf_free) refers to memp.o(i.memp_free) for memp_free
    pbuf.o(i.pbuf_free) refers to mem.o(i.mem_free) for mem_free
    pbuf.o(i.pbuf_header) refers to printf3.o(i.__0printf$3) for __2printf
    pbuf.o(i.pbuf_realloc) refers to printf3.o(i.__0printf$3) for __2printf
    pbuf.o(i.pbuf_realloc) refers to mem.o(i.mem_realloc) for mem_realloc
    pbuf.o(i.pbuf_realloc) refers to pbuf.o(i.pbuf_free) for pbuf_free
    pbuf.o(i.pbuf_take) refers to printf3.o(i.__0printf$3) for __2printf
    pbuf.o(i.pbuf_take) refers to memcpya.o(.text) for __aeabi_memcpy
    raw.o(i.raw_input) refers to inet.o(i.ntohs) for ntohs
    raw.o(i.raw_input) refers to raw.o(.data) for raw_pcbs
    raw.o(i.raw_new) refers to memp.o(i.memp_malloc) for memp_malloc
    raw.o(i.raw_new) refers to memseta.o(.text) for __aeabi_memclr4
    raw.o(i.raw_new) refers to raw.o(.data) for raw_pcbs
    raw.o(i.raw_remove) refers to memp.o(i.memp_free) for memp_free
    raw.o(i.raw_remove) refers to raw.o(.data) for raw_pcbs
    raw.o(i.raw_send) refers to raw.o(i.raw_sendto) for raw_sendto
    raw.o(i.raw_sendto) refers to pbuf.o(i.pbuf_header) for pbuf_header
    raw.o(i.raw_sendto) refers to pbuf.o(i.pbuf_alloc) for pbuf_alloc
    raw.o(i.raw_sendto) refers to pbuf.o(i.pbuf_chain) for pbuf_chain
    raw.o(i.raw_sendto) refers to printf3.o(i.__0printf$3) for __2printf
    raw.o(i.raw_sendto) refers to ip.o(i.ip_route) for ip_route
    raw.o(i.raw_sendto) refers to pbuf.o(i.pbuf_free) for pbuf_free
    raw.o(i.raw_sendto) refers to ip.o(i.ip_output_if) for ip_output_if
    sys.o(i.sswt_handler) refers to sys_arch.o(i.sys_sem_signal) for sys_sem_signal
    sys.o(i.sys_mbox_fetch) refers to sys_arch.o(i.sys_arch_timeouts) for sys_arch_timeouts
    sys.o(i.sys_mbox_fetch) refers to sys_arch.o(i.sys_arch_mbox_fetch) for sys_arch_mbox_fetch
    sys.o(i.sys_mbox_fetch) refers to memp.o(i.memp_free) for memp_free
    sys.o(i.sys_msleep) refers to sys_arch.o(i.sys_sem_new) for sys_sem_new
    sys.o(i.sys_msleep) refers to sys.o(i.sys_sem_wait_timeout) for sys_sem_wait_timeout
    sys.o(i.sys_msleep) refers to sys_arch.o(i.sys_sem_free) for sys_sem_free
    sys.o(i.sys_sem_wait) refers to sys_arch.o(i.sys_arch_timeouts) for sys_arch_timeouts
    sys.o(i.sys_sem_wait) refers to sys_arch.o(i.sys_arch_sem_wait) for sys_arch_sem_wait
    sys.o(i.sys_sem_wait) refers to memp.o(i.memp_free) for memp_free
    sys.o(i.sys_sem_wait_timeout) refers to sys.o(i.sys_timeout) for sys_timeout
    sys.o(i.sys_sem_wait_timeout) refers to sys.o(i.sys_sem_wait) for sys_sem_wait
    sys.o(i.sys_sem_wait_timeout) refers to sys.o(i.sys_untimeout) for sys_untimeout
    sys.o(i.sys_sem_wait_timeout) refers to sys.o(i.sswt_handler) for sswt_handler
    sys.o(i.sys_timeout) refers to memp.o(i.memp_malloc) for memp_malloc
    sys.o(i.sys_timeout) refers to printf3.o(i.__0printf$3) for __2printf
    sys.o(i.sys_timeout) refers to sys_arch.o(i.sys_arch_timeouts) for sys_arch_timeouts
    sys.o(i.sys_untimeout) refers to sys_arch.o(i.sys_arch_timeouts) for sys_arch_timeouts
    sys.o(i.sys_untimeout) refers to printf3.o(i.__0printf$3) for __2printf
    sys.o(i.sys_untimeout) refers to memp.o(i.memp_free) for memp_free
    tcp.o(i.tcp_abandon) refers to tcp.o(i.tcp_pcb_remove) for tcp_pcb_remove
    tcp.o(i.tcp_abandon) refers to memp.o(i.memp_free) for memp_free
    tcp.o(i.tcp_abandon) refers to tcp.o(i.tcp_segs_free) for tcp_segs_free
    tcp.o(i.tcp_abandon) refers to tcp_out.o(i.tcp_rst) for tcp_rst
    tcp.o(i.tcp_abandon) refers to tcp.o(.data) for tcp_tw_pcbs
    tcp.o(i.tcp_alloc) refers to memp.o(i.memp_malloc) for memp_malloc
    tcp.o(i.tcp_alloc) refers to tcp.o(i.tcp_kill_timewait) for tcp_kill_timewait
    tcp.o(i.tcp_alloc) refers to tcp.o(i.tcp_kill_prio) for tcp_kill_prio
    tcp.o(i.tcp_alloc) refers to memseta.o(.text) for __aeabi_memclr4
    tcp.o(i.tcp_alloc) refers to tcp.o(i.tcp_next_iss) for tcp_next_iss
    tcp.o(i.tcp_alloc) refers to tcp.o(.data) for tcp_ticks
    tcp.o(i.tcp_alloc) refers to tcp.o(i.tcp_recv_null) for tcp_recv_null
    tcp.o(i.tcp_bind) refers to printf3.o(i.__0printf$3) for __2printf
    tcp.o(i.tcp_bind) refers to tcp.o(i.tcp_new_port) for tcp_new_port
    tcp.o(i.tcp_bind) refers to tcpip.o(i.tcp_timer_needed) for tcp_timer_needed
    tcp.o(i.tcp_bind) refers to tcp.o(.data) for tcp_listen_pcbs
    tcp.o(i.tcp_close) refers to memp.o(i.memp_free) for memp_free
    tcp.o(i.tcp_close) refers to tcp.o(i.tcp_pcb_remove) for tcp_pcb_remove
    tcp.o(i.tcp_close) refers to tcp_out.o(i.tcp_send_ctrl) for tcp_send_ctrl
    tcp.o(i.tcp_close) refers to tcp_out.o(i.tcp_output) for tcp_output
    tcp.o(i.tcp_close) refers to tcp.o(.data) for tcp_bound_pcbs
    tcp.o(i.tcp_connect) refers to printf3.o(i.__0printf$3) for __2printf
    tcp.o(i.tcp_connect) refers to tcp.o(i.tcp_new_port) for tcp_new_port
    tcp.o(i.tcp_connect) refers to tcp.o(i.tcp_next_iss) for tcp_next_iss
    tcp.o(i.tcp_connect) refers to tcp.o(i.tcp_eff_send_mss) for tcp_eff_send_mss
    tcp.o(i.tcp_connect) refers to tcpip.o(i.tcp_timer_needed) for tcp_timer_needed
    tcp.o(i.tcp_connect) refers to tcp_out.o(i.tcp_enqueue) for tcp_enqueue
    tcp.o(i.tcp_connect) refers to tcp_out.o(i.tcp_output) for tcp_output
    tcp.o(i.tcp_connect) refers to tcp.o(.data) for tcp_bound_pcbs
    tcp.o(i.tcp_eff_send_mss) refers to ip.o(i.ip_route) for ip_route
    tcp.o(i.tcp_fasttmr) refers to pbuf.o(i.pbuf_free) for pbuf_free
    tcp.o(i.tcp_fasttmr) refers to tcp_out.o(i.tcp_output) for tcp_output
    tcp.o(i.tcp_fasttmr) refers to tcp.o(.data) for tcp_active_pcbs
    tcp.o(i.tcp_kill_prio) refers to tcp.o(i.tcp_abandon) for tcp_abandon
    tcp.o(i.tcp_kill_prio) refers to tcp.o(.data) for tcp_active_pcbs
    tcp.o(i.tcp_kill_timewait) refers to tcp.o(i.tcp_abandon) for tcp_abandon
    tcp.o(i.tcp_kill_timewait) refers to tcp.o(.data) for tcp_tw_pcbs
    tcp.o(i.tcp_listen_with_backlog) refers to printf3.o(i.__0printf$3) for __2printf
    tcp.o(i.tcp_listen_with_backlog) refers to memp.o(i.memp_malloc) for memp_malloc
    tcp.o(i.tcp_listen_with_backlog) refers to memp.o(i.memp_free) for memp_free
    tcp.o(i.tcp_listen_with_backlog) refers to tcpip.o(i.tcp_timer_needed) for tcp_timer_needed
    tcp.o(i.tcp_listen_with_backlog) refers to tcp.o(.data) for tcp_bound_pcbs
    tcp.o(i.tcp_listen_with_backlog) refers to tcp.o(i.tcp_accept_null) for tcp_accept_null
    tcp.o(i.tcp_new) refers to tcp.o(i.tcp_alloc) for tcp_alloc
    tcp.o(i.tcp_new_port) refers to tcp.o(.data) for port
    tcp.o(i.tcp_next_iss) refers to tcp.o(.data) for iss
    tcp.o(i.tcp_pcb_purge) refers to pbuf.o(i.pbuf_free) for pbuf_free
    tcp.o(i.tcp_pcb_purge) refers to tcp.o(i.tcp_segs_free) for tcp_segs_free
    tcp.o(i.tcp_pcb_remove) refers to tcp.o(i.tcp_pcb_purge) for tcp_pcb_purge
    tcp.o(i.tcp_pcb_remove) refers to tcp_out.o(i.tcp_output) for tcp_output
    tcp.o(i.tcp_pcb_remove) refers to printf3.o(i.__0printf$3) for __2printf
    tcp.o(i.tcp_pcb_remove) refers to tcp.o(.data) for tcp_tmp_pcb
    tcp.o(i.tcp_recv_null) refers to pbuf.o(i.pbuf_free) for pbuf_free
    tcp.o(i.tcp_recv_null) refers to tcp.o(i.tcp_close) for tcp_close
    tcp.o(i.tcp_recved) refers to printf3.o(i.__0printf$3) for __2printf
    tcp.o(i.tcp_recved) refers to tcp.o(i.tcp_update_rcv_ann_wnd) for tcp_update_rcv_ann_wnd
    tcp.o(i.tcp_recved) refers to tcp_out.o(i.tcp_output) for tcp_output
    tcp.o(i.tcp_seg_free) refers to pbuf.o(i.pbuf_free) for pbuf_free
    tcp.o(i.tcp_seg_free) refers to memp.o(i.memp_free) for memp_free
    tcp.o(i.tcp_segs_free) refers to tcp.o(i.tcp_seg_free) for tcp_seg_free
    tcp.o(i.tcp_slowtmr) refers to printf3.o(i.__0printf$3) for __2printf
    tcp.o(i.tcp_slowtmr) refers to tcp_out.o(i.tcp_zero_window_probe) for tcp_zero_window_probe
    tcp.o(i.tcp_slowtmr) refers to tcp_out.o(i.tcp_rexmit_rto) for tcp_rexmit_rto
    tcp.o(i.tcp_slowtmr) refers to tcp.o(i.tcp_abandon) for tcp_abandon
    tcp.o(i.tcp_slowtmr) refers to tcp_out.o(i.tcp_keepalive) for tcp_keepalive
    tcp.o(i.tcp_slowtmr) refers to tcp.o(i.tcp_pcb_purge) for tcp_pcb_purge
    tcp.o(i.tcp_slowtmr) refers to memp.o(i.memp_free) for memp_free
    tcp.o(i.tcp_slowtmr) refers to tcp_out.o(i.tcp_output) for tcp_output
    tcp.o(i.tcp_slowtmr) refers to tcp.o(.data) for tcp_ticks
    tcp.o(i.tcp_slowtmr) refers to tcp.o(.constdata) for tcp_persist_backoff
    tcp.o(i.tcp_tmr) refers to tcp.o(i.tcp_fasttmr) for tcp_fasttmr
    tcp.o(i.tcp_tmr) refers to tcp.o(i.tcp_slowtmr) for tcp_slowtmr
    tcp.o(i.tcp_tmr) refers to tcp.o(.data) for tcp_timer
    tcp_in.o(i.tcp_input) refers to inet.o(i.ntohs) for ntohs
    tcp_in.o(i.tcp_input) refers to pbuf.o(i.pbuf_header) for pbuf_header
    tcp_in.o(i.tcp_input) refers to pbuf.o(i.pbuf_free) for pbuf_free
    tcp_in.o(i.tcp_input) refers to ip_addr.o(i.ip_addr_isbroadcast) for ip_addr_isbroadcast
    tcp_in.o(i.tcp_input) refers to inet.o(i.ntohl) for ntohl
    tcp_in.o(i.tcp_input) refers to printf3.o(i.__0printf$3) for __2printf
    tcp_in.o(i.tcp_input) refers to tcp_in.o(i.tcp_timewait_input) for tcp_timewait_input
    tcp_in.o(i.tcp_input) refers to tcp_in.o(i.tcp_listen_input) for tcp_listen_input
    tcp_in.o(i.tcp_input) refers to tcp_in.o(i.tcp_process) for tcp_process
    tcp_in.o(i.tcp_input) refers to tcp.o(i.tcp_pcb_remove) for tcp_pcb_remove
    tcp_in.o(i.tcp_input) refers to memp.o(i.memp_free) for memp_free
    tcp_in.o(i.tcp_input) refers to tcp_in.o(.data) for iphdr
    tcp_in.o(i.tcp_input) refers to tcp.o(.data) for tcp_active_pcbs
    tcp_in.o(i.tcp_input) refers to tcp_in.o(.bss) for inseg
    tcp_in.o(i.tcp_input) refers to tcp_out.o(i.tcp_output) for tcp_output
    tcp_in.o(i.tcp_input) refers to tcp_out.o(i.tcp_rst) for tcp_rst
    tcp_in.o(i.tcp_listen_input) refers to tcp_out.o(i.tcp_rst) for tcp_rst
    tcp_in.o(i.tcp_listen_input) refers to tcp.o(i.tcp_alloc) for tcp_alloc
    tcp_in.o(i.tcp_listen_input) refers to tcpip.o(i.tcp_timer_needed) for tcp_timer_needed
    tcp_in.o(i.tcp_listen_input) refers to tcp_in.o(i.tcp_parseopt) for tcp_parseopt
    tcp_in.o(i.tcp_listen_input) refers to tcp.o(i.tcp_eff_send_mss) for tcp_eff_send_mss
    tcp_in.o(i.tcp_listen_input) refers to tcp_out.o(i.tcp_enqueue) for tcp_enqueue
    tcp_in.o(i.tcp_listen_input) refers to tcp.o(i.tcp_abandon) for tcp_abandon
    tcp_in.o(i.tcp_listen_input) refers to tcp_out.o(i.tcp_output) for tcp_output
    tcp_in.o(i.tcp_listen_input) refers to tcp_in.o(.data) for flags
    tcp_in.o(i.tcp_listen_input) refers to tcp.o(.data) for tcp_active_pcbs
    tcp_in.o(i.tcp_parseopt) refers to inet.o(i.ntohs) for ntohs
    tcp_in.o(i.tcp_parseopt) refers to tcp_in.o(.data) for tcphdr
    tcp_in.o(i.tcp_process) refers to printf3.o(i.__0printf$3) for __2printf
    tcp_in.o(i.tcp_process) refers to tcp_out.o(i.tcp_output) for tcp_output
    tcp_in.o(i.tcp_process) refers to tcp_in.o(i.tcp_parseopt) for tcp_parseopt
    tcp_in.o(i.tcp_process) refers to inet.o(i.ntohl) for ntohl
    tcp_in.o(i.tcp_process) refers to tcp.o(i.tcp_eff_send_mss) for tcp_eff_send_mss
    tcp_in.o(i.tcp_process) refers to tcp.o(i.tcp_seg_free) for tcp_seg_free
    tcp_in.o(i.tcp_process) refers to tcp_out.o(i.tcp_rst) for tcp_rst
    tcp_in.o(i.tcp_process) refers to tcp.o(i.tcp_abandon) for tcp_abandon
    tcp_in.o(i.tcp_process) refers to tcp_in.o(i.tcp_receive) for tcp_receive
    tcp_in.o(i.tcp_process) refers to tcp_out.o(i.tcp_rexmit) for tcp_rexmit
    tcp_in.o(i.tcp_process) refers to tcp.o(i.tcp_pcb_purge) for tcp_pcb_purge
    tcp_in.o(i.tcp_process) refers to tcp_in.o(.data) for flags
    tcp_in.o(i.tcp_process) refers to tcp.o(.data) for tcp_ticks
    tcp_in.o(i.tcp_process) refers to tcpip.o(i.tcp_timer_needed) for tcp_timer_needed
    tcp_in.o(i.tcp_receive) refers to tcp_out.o(i.tcp_rexmit) for tcp_rexmit
    tcp_in.o(i.tcp_receive) refers to pbuf.o(i.pbuf_clen) for pbuf_clen
    tcp_in.o(i.tcp_receive) refers to printf3.o(i.__0printf$3) for __2printf
    tcp_in.o(i.tcp_receive) refers to tcp.o(i.tcp_seg_free) for tcp_seg_free
    tcp_in.o(i.tcp_receive) refers to inet.o(i.ntohl) for ntohl
    tcp_in.o(i.tcp_receive) refers to inet.o(i.ntohs) for ntohs
    tcp_in.o(i.tcp_receive) refers to tcp_in.o(.data) for flags
    tcp_in.o(i.tcp_receive) refers to tcp.o(.data) for tcp_ticks
    tcp_in.o(i.tcp_receive) refers to pbuf.o(i.pbuf_header) for pbuf_header
    tcp_in.o(i.tcp_receive) refers to tcp_out.o(i.tcp_output) for tcp_output
    tcp_in.o(i.tcp_receive) refers to inet.o(i.htons) for htons
    tcp_in.o(i.tcp_receive) refers to pbuf.o(i.pbuf_realloc) for pbuf_realloc
    tcp_in.o(i.tcp_receive) refers to tcp.o(i.tcp_update_rcv_ann_wnd) for tcp_update_rcv_ann_wnd
    tcp_in.o(i.tcp_receive) refers to tcp_in.o(.bss) for inseg
    tcp_in.o(i.tcp_timewait_input) refers to tcp_out.o(i.tcp_output) for tcp_output
    tcp_in.o(i.tcp_timewait_input) refers to tcp_in.o(.data) for seqno
    tcp_out.o(i.tcp_enqueue) refers to printf3.o(i.__0printf$3) for __2printf
    tcp_out.o(i.tcp_enqueue) refers to memp.o(i.memp_malloc) for memp_malloc
    tcp_out.o(i.tcp_enqueue) refers to pbuf.o(i.pbuf_alloc) for pbuf_alloc
    tcp_out.o(i.tcp_enqueue) refers to pbuf.o(i.pbuf_clen) for pbuf_clen
    tcp_out.o(i.tcp_enqueue) refers to memcpya.o(.text) for __aeabi_memcpy
    tcp_out.o(i.tcp_enqueue) refers to pbuf.o(i.pbuf_free) for pbuf_free
    tcp_out.o(i.tcp_enqueue) refers to pbuf.o(i.pbuf_cat) for pbuf_cat
    tcp_out.o(i.tcp_enqueue) refers to pbuf.o(i.pbuf_header) for pbuf_header
    tcp_out.o(i.tcp_enqueue) refers to inet.o(i.htons) for htons
    tcp_out.o(i.tcp_enqueue) refers to inet.o(i.htonl) for htonl
    tcp_out.o(i.tcp_enqueue) refers to inet.o(i.ntohs) for ntohs
    tcp_out.o(i.tcp_enqueue) refers to memp.o(i.memp_free) for memp_free
    tcp_out.o(i.tcp_enqueue) refers to tcp_out.o(.constdata) for .constdata
    tcp_out.o(i.tcp_enqueue) refers to tcp.o(i.tcp_segs_free) for tcp_segs_free
    tcp_out.o(i.tcp_keepalive) refers to pbuf.o(i.pbuf_alloc) for pbuf_alloc
    tcp_out.o(i.tcp_keepalive) refers to printf3.o(i.__0printf$3) for __2printf
    tcp_out.o(i.tcp_keepalive) refers to inet.o(i.htonl) for htonl
    tcp_out.o(i.tcp_keepalive) refers to tcp_out.o(i.tcp_output_set_header) for tcp_output_set_header
    tcp_out.o(i.tcp_keepalive) refers to ip.o(i.ip_output) for ip_output
    tcp_out.o(i.tcp_keepalive) refers to pbuf.o(i.pbuf_free) for pbuf_free
    tcp_out.o(i.tcp_output) refers to inet.o(i.ntohl) for ntohl
    tcp_out.o(i.tcp_output) refers to pbuf.o(i.pbuf_alloc) for pbuf_alloc
    tcp_out.o(i.tcp_output) refers to inet.o(i.htonl) for htonl
    tcp_out.o(i.tcp_output) refers to tcp_out.o(i.tcp_output_set_header) for tcp_output_set_header
    tcp_out.o(i.tcp_output) refers to ip.o(i.ip_output) for ip_output
    tcp_out.o(i.tcp_output) refers to pbuf.o(i.pbuf_free) for pbuf_free
    tcp_out.o(i.tcp_output) refers to inet.o(i.ntohs) for ntohs
    tcp_out.o(i.tcp_output) refers to printf3.o(i.__0printf$3) for __2printf
    tcp_out.o(i.tcp_output) refers to inet.o(i.htons) for htons
    tcp_out.o(i.tcp_output) refers to tcp_out.o(i.tcp_output_segment) for tcp_output_segment
    tcp_out.o(i.tcp_output) refers to tcp.o(i.tcp_seg_free) for tcp_seg_free
    tcp_out.o(i.tcp_output) refers to tcp_in.o(.data) for tcp_input_pcb
    tcp_out.o(i.tcp_output_segment) refers to inet.o(i.htonl) for htonl
    tcp_out.o(i.tcp_output_segment) refers to inet.o(i.htons) for htons
    tcp_out.o(i.tcp_output_segment) refers to ip.o(i.ip_route) for ip_route
    tcp_out.o(i.tcp_output_segment) refers to inet.o(i.ntohl) for ntohl
    tcp_out.o(i.tcp_output_segment) refers to ip.o(i.ip_output) for ip_output
    tcp_out.o(i.tcp_output_segment) refers to tcp.o(.data) for tcp_ticks
    tcp_out.o(i.tcp_output_set_header) refers to inet.o(i.htons) for htons
    tcp_out.o(i.tcp_output_set_header) refers to inet.o(i.htonl) for htonl
    tcp_out.o(i.tcp_output_set_header) refers to inet.o(i.ntohs) for ntohs
    tcp_out.o(i.tcp_rexmit) refers to inet.o(i.ntohl) for ntohl
    tcp_out.o(i.tcp_rexmit) refers to tcp_out.o(i.tcp_output) for tcp_output
    tcp_out.o(i.tcp_rexmit_rto) refers to tcp_out.o(i.tcp_output) for tcp_output
    tcp_out.o(i.tcp_rst) refers to pbuf.o(i.pbuf_alloc) for pbuf_alloc
    tcp_out.o(i.tcp_rst) refers to printf3.o(i.__0printf$3) for __2printf
    tcp_out.o(i.tcp_rst) refers to inet.o(i.htons) for htons
    tcp_out.o(i.tcp_rst) refers to inet.o(i.htonl) for htonl
    tcp_out.o(i.tcp_rst) refers to inet.o(i.ntohs) for ntohs
    tcp_out.o(i.tcp_rst) refers to ip.o(i.ip_output) for ip_output
    tcp_out.o(i.tcp_rst) refers to pbuf.o(i.pbuf_free) for pbuf_free
    tcp_out.o(i.tcp_send_ctrl) refers to tcp_out.o(i.tcp_enqueue) for tcp_enqueue
    tcp_out.o(i.tcp_write) refers to tcp_out.o(i.tcp_enqueue) for tcp_enqueue
    tcp_out.o(i.tcp_zero_window_probe) refers to pbuf.o(i.pbuf_alloc) for pbuf_alloc
    tcp_out.o(i.tcp_zero_window_probe) refers to printf3.o(i.__0printf$3) for __2printf
    tcp_out.o(i.tcp_zero_window_probe) refers to tcp_out.o(i.tcp_output_set_header) for tcp_output_set_header
    tcp_out.o(i.tcp_zero_window_probe) refers to ip.o(i.ip_output) for ip_output
    tcp_out.o(i.tcp_zero_window_probe) refers to pbuf.o(i.pbuf_free) for pbuf_free
    udp.o(i.udp_bind) refers to printf3.o(i.__0printf$3) for __2printf
    udp.o(i.udp_bind) refers to udp.o(.data) for udp_pcbs
    udp.o(i.udp_connect) refers to udp.o(i.udp_bind) for udp_bind
    udp.o(i.udp_connect) refers to udp.o(.data) for udp_pcbs
    udp.o(i.udp_disconnect) refers to ip_addr.o(.constdata) for ip_addr_any
    udp.o(i.udp_input) refers to inet.o(i.ntohs) for ntohs
    udp.o(i.udp_input) refers to pbuf.o(i.pbuf_header) for pbuf_header
    udp.o(i.udp_input) refers to pbuf.o(i.pbuf_free) for pbuf_free
    udp.o(i.udp_input) refers to ip_addr.o(i.ip_addr_isbroadcast) for ip_addr_isbroadcast
    udp.o(i.udp_input) refers to printf3.o(i.__0printf$3) for __2printf
    udp.o(i.udp_input) refers to inet.o(i.ntohl) for ntohl
    udp.o(i.udp_input) refers to icmp.o(i.icmp_dest_unreach) for icmp_dest_unreach
    udp.o(i.udp_input) refers to udp.o(.data) for udp_pcbs
    udp.o(i.udp_new) refers to memp.o(i.memp_malloc) for memp_malloc
    udp.o(i.udp_new) refers to memseta.o(.text) for __aeabi_memclr4
    udp.o(i.udp_remove) refers to memp.o(i.memp_free) for memp_free
    udp.o(i.udp_remove) refers to udp.o(.data) for udp_pcbs
    udp.o(i.udp_send) refers to udp.o(i.udp_sendto) for udp_sendto
    udp.o(i.udp_sendto) refers to ip.o(i.ip_route) for ip_route
    udp.o(i.udp_sendto) refers to udp.o(i.udp_sendto_if) for udp_sendto_if
    udp.o(i.udp_sendto_if) refers to udp.o(i.udp_bind) for udp_bind
    udp.o(i.udp_sendto_if) refers to pbuf.o(i.pbuf_header) for pbuf_header
    udp.o(i.udp_sendto_if) refers to pbuf.o(i.pbuf_alloc) for pbuf_alloc
    udp.o(i.udp_sendto_if) refers to pbuf.o(i.pbuf_chain) for pbuf_chain
    udp.o(i.udp_sendto_if) refers to printf3.o(i.__0printf$3) for __2printf
    udp.o(i.udp_sendto_if) refers to inet.o(i.htons) for htons
    udp.o(i.udp_sendto_if) refers to pbuf.o(i.pbuf_free) for pbuf_free
    udp.o(i.udp_sendto_if) refers to ip.o(i.ip_output_if) for ip_output_if
    icmp.o(i.icmp_dest_unreach) refers to icmp.o(i.icmp_send_response) for icmp_send_response
    icmp.o(i.icmp_input) refers to inet.o(i.ntohs) for ntohs
    icmp.o(i.icmp_input) refers to pbuf.o(i.pbuf_header) for pbuf_header
    icmp.o(i.icmp_input) refers to inet.o(i.ntohl) for ntohl
    icmp.o(i.icmp_input) refers to ip_addr.o(i.ip_addr_isbroadcast) for ip_addr_isbroadcast
    icmp.o(i.icmp_input) refers to pbuf.o(i.pbuf_free) for pbuf_free
    icmp.o(i.icmp_input) refers to inet_chksum.o(i.inet_chksum_pbuf) for inet_chksum_pbuf
    icmp.o(i.icmp_input) refers to printf3.o(i.__0printf$3) for __2printf
    icmp.o(i.icmp_input) refers to pbuf.o(i.pbuf_alloc) for pbuf_alloc
    icmp.o(i.icmp_input) refers to pbuf.o(i.pbuf_copy) for pbuf_copy
    icmp.o(i.icmp_input) refers to inet.o(i.htons) for htons
    icmp.o(i.icmp_input) refers to ip.o(i.ip_output_if) for ip_output_if
    icmp.o(i.icmp_send_response) refers to pbuf.o(i.pbuf_alloc) for pbuf_alloc
    icmp.o(i.icmp_send_response) refers to printf3.o(i.__0printf$3) for __2printf
    icmp.o(i.icmp_send_response) refers to memcpya.o(.text) for __aeabi_memcpy
    icmp.o(i.icmp_send_response) refers to inet_chksum.o(i.inet_chksum) for inet_chksum
    icmp.o(i.icmp_send_response) refers to ip.o(i.ip_output) for ip_output
    icmp.o(i.icmp_send_response) refers to pbuf.o(i.pbuf_free) for pbuf_free
    icmp.o(i.icmp_time_exceeded) refers to icmp.o(i.icmp_send_response) for icmp_send_response
    inet.o(i.inet_addr) refers to inet.o(i.inet_aton) for inet_aton
    inet.o(i.inet_aton) refers to inet.o(i.htonl) for htonl
    inet.o(i.inet_ntoa) refers to inet.o(.bss) for str
    inet.o(i.ntohl) refers to inet.o(i.htonl) for htonl
    inet.o(i.ntohs) refers to inet.o(i.htons) for htons
    inet_chksum.o(i.inet_chksum) refers to inet_chksum.o(i.lwip_standard_chksum) for lwip_standard_chksum
    inet_chksum.o(i.inet_chksum_pbuf) refers to inet_chksum.o(i.lwip_standard_chksum) for lwip_standard_chksum
    inet_chksum.o(i.inet_chksum_pseudo) refers to inet_chksum.o(i.lwip_standard_chksum) for lwip_standard_chksum
    inet_chksum.o(i.inet_chksum_pseudo) refers to inet.o(i.htons) for htons
    inet_chksum.o(i.lwip_standard_chksum) refers to inet.o(i.htons) for htons
    ip.o(i.ip_current_header) refers to ip.o(.data) for current_header
    ip.o(i.ip_current_netif) refers to ip.o(.data) for current_netif
    ip.o(i.ip_input) refers to inet.o(i.ntohs) for ntohs
    ip.o(i.ip_input) refers to pbuf.o(i.pbuf_free) for pbuf_free
    ip.o(i.ip_input) refers to pbuf.o(i.pbuf_realloc) for pbuf_realloc
    ip.o(i.ip_input) refers to netif.o(i.netif_is_up) for netif_is_up
    ip.o(i.ip_input) refers to ip_addr.o(i.ip_addr_isbroadcast) for ip_addr_isbroadcast
    ip.o(i.ip_input) refers to inet.o(i.ntohl) for ntohl
    ip.o(i.ip_input) refers to inet.o(i.htons) for htons
    ip.o(i.ip_input) refers to ip_frag.o(i.ip_reass) for ip_reass
    ip.o(i.ip_input) refers to raw.o(i.raw_input) for raw_input
    ip.o(i.ip_input) refers to udp.o(i.udp_input) for udp_input
    ip.o(i.ip_input) refers to tcp_in.o(i.tcp_input) for tcp_input
    ip.o(i.ip_input) refers to icmp.o(i.icmp_input) for icmp_input
    ip.o(i.ip_input) refers to icmp.o(i.icmp_dest_unreach) for icmp_dest_unreach
    ip.o(i.ip_input) refers to netif.o(.data) for netif_list
    ip.o(i.ip_input) refers to ip.o(.data) for current_netif
    ip.o(i.ip_output) refers to ip.o(i.ip_route) for ip_route
    ip.o(i.ip_output) refers to ip.o(i.ip_output_if) for ip_output_if
    ip.o(i.ip_output_if) refers to pbuf.o(i.pbuf_header) for pbuf_header
    ip.o(i.ip_output_if) refers to printf3.o(i.__0printf$3) for __2printf
    ip.o(i.ip_output_if) refers to inet.o(i.ntohs) for ntohs
    ip.o(i.ip_output_if) refers to inet.o(i.htons) for htons
    ip.o(i.ip_output_if) refers to ip_frag.o(i.ip_frag) for ip_frag
    ip.o(i.ip_output_if) refers to ip.o(.data) for ip_id
    ip.o(i.ip_route) refers to netif.o(i.netif_is_up) for netif_is_up
    ip.o(i.ip_route) refers to netif.o(.data) for netif_list
    ip_frag.o(i.ip_frag) refers to pbuf.o(i.pbuf_alloc) for pbuf_alloc
    ip_frag.o(i.ip_frag) refers to memcpya.o(.text) for __aeabi_memcpy
    ip_frag.o(i.ip_frag) refers to inet.o(i.ntohs) for ntohs
    ip_frag.o(i.ip_frag) refers to pbuf.o(i.pbuf_copy_partial) for pbuf_copy_partial
    ip_frag.o(i.ip_frag) refers to inet.o(i.htons) for htons
    ip_frag.o(i.ip_frag) refers to inet_chksum.o(i.inet_chksum) for inet_chksum
    ip_frag.o(i.ip_frag) refers to pbuf.o(i.pbuf_realloc) for pbuf_realloc
    ip_frag.o(i.ip_frag) refers to pbuf.o(i.pbuf_chain) for pbuf_chain
    ip_frag.o(i.ip_frag) refers to pbuf.o(i.pbuf_free) for pbuf_free
    ip_frag.o(i.ip_frag) refers to ip_frag.o(.bss) for buf
    ip_frag.o(i.ip_reass) refers to inet.o(i.ntohs) for ntohs
    ip_frag.o(i.ip_reass) refers to pbuf.o(i.pbuf_clen) for pbuf_clen
    ip_frag.o(i.ip_reass) refers to ip_frag.o(i.ip_reass_remove_oldest_datagram) for ip_reass_remove_oldest_datagram
    ip_frag.o(i.ip_reass) refers to ip_frag.o(i.ip_reass_enqueue_new_datagram) for ip_reass_enqueue_new_datagram
    ip_frag.o(i.ip_reass) refers to memcpya.o(.text) for __aeabi_memcpy
    ip_frag.o(i.ip_reass) refers to ip_frag.o(i.ip_reass_chain_frag_into_datagram_and_validate) for ip_reass_chain_frag_into_datagram_and_validate
    ip_frag.o(i.ip_reass) refers to inet.o(i.htons) for htons
    ip_frag.o(i.ip_reass) refers to inet_chksum.o(i.inet_chksum) for inet_chksum
    ip_frag.o(i.ip_reass) refers to pbuf.o(i.pbuf_header) for pbuf_header
    ip_frag.o(i.ip_reass) refers to pbuf.o(i.pbuf_cat) for pbuf_cat
    ip_frag.o(i.ip_reass) refers to ip_frag.o(i.ip_reass_dequeue_datagram) for ip_reass_dequeue_datagram
    ip_frag.o(i.ip_reass) refers to pbuf.o(i.pbuf_free) for pbuf_free
    ip_frag.o(i.ip_reass) refers to ip_frag.o(.data) for ip_reass_pbufcount
    ip_frag.o(i.ip_reass_chain_frag_into_datagram_and_validate) refers to inet.o(i.ntohs) for ntohs
    ip_frag.o(i.ip_reass_chain_frag_into_datagram_and_validate) refers to printf3.o(i.__0printf$3) for __2printf
    ip_frag.o(i.ip_reass_chain_frag_into_datagram_and_validate) refers to pbuf.o(i.pbuf_clen) for pbuf_clen
    ip_frag.o(i.ip_reass_chain_frag_into_datagram_and_validate) refers to pbuf.o(i.pbuf_free) for pbuf_free
    ip_frag.o(i.ip_reass_chain_frag_into_datagram_and_validate) refers to ip_frag.o(.data) for ip_reass_pbufcount
    ip_frag.o(i.ip_reass_dequeue_datagram) refers to printf3.o(i.__0printf$3) for __2printf
    ip_frag.o(i.ip_reass_dequeue_datagram) refers to memp.o(i.memp_free) for memp_free
    ip_frag.o(i.ip_reass_dequeue_datagram) refers to ip_frag.o(.data) for reassdatagrams
    ip_frag.o(i.ip_reass_enqueue_new_datagram) refers to memp.o(i.memp_malloc) for memp_malloc
    ip_frag.o(i.ip_reass_enqueue_new_datagram) refers to ip_frag.o(i.ip_reass_remove_oldest_datagram) for ip_reass_remove_oldest_datagram
    ip_frag.o(i.ip_reass_enqueue_new_datagram) refers to memseta.o(.text) for __aeabi_memclr4
    ip_frag.o(i.ip_reass_enqueue_new_datagram) refers to memcpya.o(.text) for __aeabi_memcpy
    ip_frag.o(i.ip_reass_enqueue_new_datagram) refers to ip_frag.o(.data) for reassdatagrams
    ip_frag.o(i.ip_reass_free_complete_datagram) refers to printf3.o(i.__0printf$3) for __2printf
    ip_frag.o(i.ip_reass_free_complete_datagram) refers to memcpya.o(.text) for __aeabi_memcpy
    ip_frag.o(i.ip_reass_free_complete_datagram) refers to icmp.o(i.icmp_time_exceeded) for icmp_time_exceeded
    ip_frag.o(i.ip_reass_free_complete_datagram) refers to pbuf.o(i.pbuf_clen) for pbuf_clen
    ip_frag.o(i.ip_reass_free_complete_datagram) refers to pbuf.o(i.pbuf_free) for pbuf_free
    ip_frag.o(i.ip_reass_free_complete_datagram) refers to ip_frag.o(i.ip_reass_dequeue_datagram) for ip_reass_dequeue_datagram
    ip_frag.o(i.ip_reass_free_complete_datagram) refers to ip_frag.o(.data) for ip_reass_pbufcount
    ip_frag.o(i.ip_reass_remove_oldest_datagram) refers to ip_frag.o(i.ip_reass_free_complete_datagram) for ip_reass_free_complete_datagram
    ip_frag.o(i.ip_reass_remove_oldest_datagram) refers to ip_frag.o(.data) for reassdatagrams
    ip_frag.o(i.ip_reass_tmr) refers to ip_frag.o(i.ip_reass_free_complete_datagram) for ip_reass_free_complete_datagram
    ip_frag.o(i.ip_reass_tmr) refers to ip_frag.o(.data) for reassdatagrams
    etharp.o(i.etharp_arp_input) refers to printf3.o(i.__0printf$3) for __2printf
    etharp.o(i.etharp_arp_input) refers to pbuf.o(i.pbuf_free) for pbuf_free
    etharp.o(i.etharp_arp_input) refers to inet.o(i.htons) for htons
    etharp.o(i.etharp_arp_input) refers to etharp.o(i.update_arp_entry) for update_arp_entry
    etharp.o(i.etharp_arp_input) refers to etharp.o(.constdata) for .constdata
    etharp.o(i.etharp_find_addr) refers to etharp.o(i.find_entry) for find_entry
    etharp.o(i.etharp_find_addr) refers to etharp.o(.bss) for arp_table
    etharp.o(i.etharp_ip_input) refers to printf3.o(i.__0printf$3) for __2printf
    etharp.o(i.etharp_ip_input) refers to etharp.o(i.update_arp_entry) for update_arp_entry
    etharp.o(i.etharp_output) refers to pbuf.o(i.pbuf_header) for pbuf_header
    etharp.o(i.etharp_output) refers to ip_addr.o(i.ip_addr_isbroadcast) for ip_addr_isbroadcast
    etharp.o(i.etharp_output) refers to inet.o(i.ntohl) for ntohl
    etharp.o(i.etharp_output) refers to etharp.o(i.etharp_query) for etharp_query
    etharp.o(i.etharp_output) refers to etharp.o(i.etharp_send_ip) for etharp_send_ip
    etharp.o(i.etharp_output) refers to etharp.o(.constdata) for ethbroadcast
    etharp.o(i.etharp_query) refers to ip_addr.o(i.ip_addr_isbroadcast) for ip_addr_isbroadcast
    etharp.o(i.etharp_query) refers to inet.o(i.ntohl) for ntohl
    etharp.o(i.etharp_query) refers to etharp.o(i.find_entry) for find_entry
    etharp.o(i.etharp_query) refers to printf3.o(i.__0printf$3) for __2printf
    etharp.o(i.etharp_query) refers to etharp.o(i.etharp_request) for etharp_request
    etharp.o(i.etharp_query) refers to etharp.o(i.etharp_send_ip) for etharp_send_ip
    etharp.o(i.etharp_query) refers to pbuf.o(i.pbuf_alloc) for pbuf_alloc
    etharp.o(i.etharp_query) refers to pbuf.o(i.pbuf_copy) for pbuf_copy
    etharp.o(i.etharp_query) refers to pbuf.o(i.pbuf_free) for pbuf_free
    etharp.o(i.etharp_query) refers to pbuf.o(i.pbuf_ref) for pbuf_ref
    etharp.o(i.etharp_query) refers to memp.o(i.memp_malloc) for memp_malloc
    etharp.o(i.etharp_query) refers to etharp.o(.bss) for arp_table
    etharp.o(i.etharp_raw) refers to pbuf.o(i.pbuf_alloc) for pbuf_alloc
    etharp.o(i.etharp_raw) refers to printf3.o(i.__0printf$3) for __2printf
    etharp.o(i.etharp_raw) refers to inet.o(i.htons) for htons
    etharp.o(i.etharp_raw) refers to pbuf.o(i.pbuf_free) for pbuf_free
    etharp.o(i.etharp_raw) refers to etharp.o(.constdata) for .constdata
    etharp.o(i.etharp_request) refers to etharp.o(i.etharp_raw) for etharp_raw
    etharp.o(i.etharp_request) refers to etharp.o(.constdata) for ethzero
    etharp.o(i.etharp_send_ip) refers to printf3.o(i.__0printf$3) for __2printf
    etharp.o(i.etharp_send_ip) refers to inet.o(i.htons) for htons
    etharp.o(i.etharp_send_ip) refers to etharp.o(.constdata) for .constdata
    etharp.o(i.etharp_tmr) refers to etharp.o(i.free_etharp_q) for free_etharp_q
    etharp.o(i.etharp_tmr) refers to etharp.o(.bss) for arp_table
    etharp.o(i.ethernet_input) refers to inet.o(i.htons) for htons
    etharp.o(i.ethernet_input) refers to etharp.o(i.etharp_ip_input) for etharp_ip_input
    etharp.o(i.ethernet_input) refers to pbuf.o(i.pbuf_header) for pbuf_header
    etharp.o(i.ethernet_input) refers to printf3.o(i.__0printf$3) for __2printf
    etharp.o(i.ethernet_input) refers to pbuf.o(i.pbuf_free) for pbuf_free
    etharp.o(i.ethernet_input) refers to ip.o(i.ip_input) for ip_input
    etharp.o(i.ethernet_input) refers to etharp.o(i.etharp_arp_input) for etharp_arp_input
    etharp.o(i.find_entry) refers to printf3.o(i.__0printf$3) for __2printf
    etharp.o(i.find_entry) refers to etharp.o(i.free_etharp_q) for free_etharp_q
    etharp.o(i.find_entry) refers to etharp.o(.data) for etharp_cached_entry
    etharp.o(i.find_entry) refers to etharp.o(.bss) for arp_table
    etharp.o(i.free_etharp_q) refers to printf3.o(i.__0printf$3) for __2printf
    etharp.o(i.free_etharp_q) refers to pbuf.o(i.pbuf_free) for pbuf_free
    etharp.o(i.free_etharp_q) refers to memp.o(i.memp_free) for memp_free
    etharp.o(i.update_arp_entry) refers to printf3.o(i.__0printf$3) for __2printf
    etharp.o(i.update_arp_entry) refers to ip_addr.o(i.ip_addr_isbroadcast) for ip_addr_isbroadcast
    etharp.o(i.update_arp_entry) refers to inet.o(i.ntohl) for ntohl
    etharp.o(i.update_arp_entry) refers to etharp.o(i.find_entry) for find_entry
    etharp.o(i.update_arp_entry) refers to memp.o(i.memp_free) for memp_free
    etharp.o(i.update_arp_entry) refers to etharp.o(i.etharp_send_ip) for etharp_send_ip
    etharp.o(i.update_arp_entry) refers to pbuf.o(i.pbuf_free) for pbuf_free
    etharp.o(i.update_arp_entry) refers to etharp.o(.bss) for arp_table
    entry.o(.ARM.Collect$$$$00000000) refers (Special) to entry7b.o(.ARM.Collect$$$$00000008) for _main_clock
    entry.o(.ARM.Collect$$$$00000000) refers (Special) to entry8.o(.ARM.Collect$$$$00000009) for _main_init
    entry.o(.ARM.Collect$$$$00000000) refers (Special) to entry5.o(.ARM.Collect$$$$00000004) for _main_scatterload
    entry.o(.ARM.Collect$$$$00000000) refers (Special) to entry2.o(.ARM.Collect$$$$00000001) for _main_stk
    printfb.o(i.__0fprintf$bare) refers to printfb.o(i._printf_core) for _printf_core
    printfb.o(i.__0fprintf$bare) refers to bsp.o(i.fputc) for fputc
    printfb.o(i.__0printf$bare) refers to printfb.o(i._printf_core) for _printf_core
    printfb.o(i.__0printf$bare) refers to bsp.o(i.fputc) for fputc
    printfb.o(i.__0printf$bare) refers to stdout.o(.data) for __stdout
    printfb.o(i.__0snprintf$bare) refers to printfb.o(i._printf_core) for _printf_core
    printfb.o(i.__0snprintf$bare) refers to printfb.o(i._snputc) for _snputc
    printfb.o(i.__0sprintf$bare) refers to printfb.o(i._printf_core) for _printf_core
    printfb.o(i.__0sprintf$bare) refers to printfb.o(i._sputc) for _sputc
    printfb.o(i.__0vfprintf$bare) refers to printfb.o(i._printf_core) for _printf_core
    printfb.o(i.__0vfprintf$bare) refers to bsp.o(i.fputc) for fputc
    printfb.o(i.__0vprintf$bare) refers to printfb.o(i._printf_core) for _printf_core
    printfb.o(i.__0vprintf$bare) refers to bsp.o(i.fputc) for fputc
    printfb.o(i.__0vprintf$bare) refers to stdout.o(.data) for __stdout
    printfb.o(i.__0vsnprintf$bare) refers to printfb.o(i._printf_core) for _printf_core
    printfb.o(i.__0vsnprintf$bare) refers to printfb.o(i._snputc) for _snputc
    printfb.o(i.__0vsprintf$bare) refers to printfb.o(i._printf_core) for _printf_core
    printfb.o(i.__0vsprintf$bare) refers to printfb.o(i._sputc) for _sputc
    printf0.o(i.__0fprintf$0) refers to printf0.o(i._printf_core) for _printf_core
    printf0.o(i.__0fprintf$0) refers to bsp.o(i.fputc) for fputc
    printf0.o(i.__0printf$0) refers to printf0.o(i._printf_core) for _printf_core
    printf0.o(i.__0printf$0) refers to bsp.o(i.fputc) for fputc
    printf0.o(i.__0printf$0) refers to stdout.o(.data) for __stdout
    printf0.o(i.__0snprintf$0) refers to printf0.o(i._printf_core) for _printf_core
    printf0.o(i.__0snprintf$0) refers to printf0.o(i._snputc) for _snputc
    printf0.o(i.__0sprintf$0) refers to printf0.o(i._printf_core) for _printf_core
    printf0.o(i.__0sprintf$0) refers to printf0.o(i._sputc) for _sputc
    printf0.o(i.__0vfprintf$0) refers to printf0.o(i._printf_core) for _printf_core
    printf0.o(i.__0vfprintf$0) refers to bsp.o(i.fputc) for fputc
    printf0.o(i.__0vprintf$0) refers to printf0.o(i._printf_core) for _printf_core
    printf0.o(i.__0vprintf$0) refers to bsp.o(i.fputc) for fputc
    printf0.o(i.__0vprintf$0) refers to stdout.o(.data) for __stdout
    printf0.o(i.__0vsnprintf$0) refers to printf0.o(i._printf_core) for _printf_core
    printf0.o(i.__0vsnprintf$0) refers to printf0.o(i._snputc) for _snputc
    printf0.o(i.__0vsprintf$0) refers to printf0.o(i._printf_core) for _printf_core
    printf0.o(i.__0vsprintf$0) refers to printf0.o(i._sputc) for _sputc
    printf1.o(i.__0fprintf$1) refers to printf1.o(i._printf_core) for _printf_core
    printf1.o(i.__0fprintf$1) refers to bsp.o(i.fputc) for fputc
    printf1.o(i.__0printf$1) refers to printf1.o(i._printf_core) for _printf_core
    printf1.o(i.__0printf$1) refers to bsp.o(i.fputc) for fputc
    printf1.o(i.__0printf$1) refers to stdout.o(.data) for __stdout
    printf1.o(i.__0snprintf$1) refers to printf1.o(i._printf_core) for _printf_core
    printf1.o(i.__0snprintf$1) refers to printf1.o(i._snputc) for _snputc
    printf1.o(i.__0sprintf$1) refers to printf1.o(i._printf_core) for _printf_core
    printf1.o(i.__0sprintf$1) refers to printf1.o(i._sputc) for _sputc
    printf1.o(i.__0vfprintf$1) refers to printf1.o(i._printf_core) for _printf_core
    printf1.o(i.__0vfprintf$1) refers to bsp.o(i.fputc) for fputc
    printf1.o(i.__0vprintf$1) refers to printf1.o(i._printf_core) for _printf_core
    printf1.o(i.__0vprintf$1) refers to bsp.o(i.fputc) for fputc
    printf1.o(i.__0vprintf$1) refers to stdout.o(.data) for __stdout
    printf1.o(i.__0vsnprintf$1) refers to printf1.o(i._printf_core) for _printf_core
    printf1.o(i.__0vsnprintf$1) refers to printf1.o(i._snputc) for _snputc
    printf1.o(i.__0vsprintf$1) refers to printf1.o(i._printf_core) for _printf_core
    printf1.o(i.__0vsprintf$1) refers to printf1.o(i._sputc) for _sputc
    printf1.o(i._printf_core) refers to uidiv.o(.text) for __aeabi_uidivmod
    printf2.o(i.__0fprintf$2) refers to printf2.o(i._printf_core) for _printf_core
    printf2.o(i.__0fprintf$2) refers to bsp.o(i.fputc) for fputc
    printf2.o(i.__0printf$2) refers to printf2.o(i._printf_core) for _printf_core
    printf2.o(i.__0printf$2) refers to bsp.o(i.fputc) for fputc
    printf2.o(i.__0printf$2) refers to stdout.o(.data) for __stdout
    printf2.o(i.__0snprintf$2) refers to printf2.o(i._printf_core) for _printf_core
    printf2.o(i.__0snprintf$2) refers to printf2.o(i._snputc) for _snputc
    printf2.o(i.__0sprintf$2) refers to printf2.o(i._printf_core) for _printf_core
    printf2.o(i.__0sprintf$2) refers to printf2.o(i._sputc) for _sputc
    printf2.o(i.__0vfprintf$2) refers to printf2.o(i._printf_core) for _printf_core
    printf2.o(i.__0vfprintf$2) refers to bsp.o(i.fputc) for fputc
    printf2.o(i.__0vprintf$2) refers to printf2.o(i._printf_core) for _printf_core
    printf2.o(i.__0vprintf$2) refers to bsp.o(i.fputc) for fputc
    printf2.o(i.__0vprintf$2) refers to stdout.o(.data) for __stdout
    printf2.o(i.__0vsnprintf$2) refers to printf2.o(i._printf_core) for _printf_core
    printf2.o(i.__0vsnprintf$2) refers to printf2.o(i._snputc) for _snputc
    printf2.o(i.__0vsprintf$2) refers to printf2.o(i._printf_core) for _printf_core
    printf2.o(i.__0vsprintf$2) refers to printf2.o(i._sputc) for _sputc
    printf3.o(i.__0fprintf$3) refers to printf3.o(i._printf_core) for _printf_core
    printf3.o(i.__0fprintf$3) refers to bsp.o(i.fputc) for fputc
    printf3.o(i.__0printf$3) refers to printf3.o(i._printf_core) for _printf_core
    printf3.o(i.__0printf$3) refers to bsp.o(i.fputc) for fputc
    printf3.o(i.__0printf$3) refers to stdout.o(.data) for __stdout
    printf3.o(i.__0snprintf$3) refers to printf3.o(i._printf_core) for _printf_core
    printf3.o(i.__0snprintf$3) refers to printf3.o(i._snputc) for _snputc
    printf3.o(i.__0sprintf$3) refers to printf3.o(i._printf_core) for _printf_core
    printf3.o(i.__0sprintf$3) refers to printf3.o(i._sputc) for _sputc
    printf3.o(i.__0vfprintf$3) refers to printf3.o(i._printf_core) for _printf_core
    printf3.o(i.__0vfprintf$3) refers to bsp.o(i.fputc) for fputc
    printf3.o(i.__0vprintf$3) refers to printf3.o(i._printf_core) for _printf_core
    printf3.o(i.__0vprintf$3) refers to bsp.o(i.fputc) for fputc
    printf3.o(i.__0vprintf$3) refers to stdout.o(.data) for __stdout
    printf3.o(i.__0vsnprintf$3) refers to printf3.o(i._printf_core) for _printf_core
    printf3.o(i.__0vsnprintf$3) refers to printf3.o(i._snputc) for _snputc
    printf3.o(i.__0vsprintf$3) refers to printf3.o(i._printf_core) for _printf_core
    printf3.o(i.__0vsprintf$3) refers to printf3.o(i._sputc) for _sputc
    printf3.o(i._printf_core) refers to uidiv.o(.text) for __aeabi_uidivmod
    printf4.o(i.__0fprintf$4) refers to printf4.o(i._printf_core) for _printf_core
    printf4.o(i.__0fprintf$4) refers to bsp.o(i.fputc) for fputc
    printf4.o(i.__0printf$4) refers to printf4.o(i._printf_core) for _printf_core
    printf4.o(i.__0printf$4) refers to bsp.o(i.fputc) for fputc
    printf4.o(i.__0printf$4) refers to stdout.o(.data) for __stdout
    printf4.o(i.__0snprintf$4) refers to printf4.o(i._printf_core) for _printf_core
    printf4.o(i.__0snprintf$4) refers to printf4.o(i._snputc) for _snputc
    printf4.o(i.__0sprintf$4) refers to printf4.o(i._printf_core) for _printf_core
    printf4.o(i.__0sprintf$4) refers to printf4.o(i._sputc) for _sputc
    printf4.o(i.__0vfprintf$4) refers to printf4.o(i._printf_core) for _printf_core
    printf4.o(i.__0vfprintf$4) refers to bsp.o(i.fputc) for fputc
    printf4.o(i.__0vprintf$4) refers to printf4.o(i._printf_core) for _printf_core
    printf4.o(i.__0vprintf$4) refers to bsp.o(i.fputc) for fputc
    printf4.o(i.__0vprintf$4) refers to stdout.o(.data) for __stdout
    printf4.o(i.__0vsnprintf$4) refers to printf4.o(i._printf_core) for _printf_core
    printf4.o(i.__0vsnprintf$4) refers to printf4.o(i._snputc) for _snputc
    printf4.o(i.__0vsprintf$4) refers to printf4.o(i._printf_core) for _printf_core
    printf4.o(i.__0vsprintf$4) refers to printf4.o(i._sputc) for _sputc
    printf4.o(i._printf_core) refers to uldiv.o(.text) for __aeabi_uldivmod
    printf5.o(i.__0fprintf$5) refers to printf5.o(i._printf_core) for _printf_core
    printf5.o(i.__0fprintf$5) refers to bsp.o(i.fputc) for fputc
    printf5.o(i.__0printf$5) refers to printf5.o(i._printf_core) for _printf_core
    printf5.o(i.__0printf$5) refers to bsp.o(i.fputc) for fputc
    printf5.o(i.__0printf$5) refers to stdout.o(.data) for __stdout
    printf5.o(i.__0snprintf$5) refers to printf5.o(i._printf_core) for _printf_core
    printf5.o(i.__0snprintf$5) refers to printf5.o(i._snputc) for _snputc
    printf5.o(i.__0sprintf$5) refers to printf5.o(i._printf_core) for _printf_core
    printf5.o(i.__0sprintf$5) refers to printf5.o(i._sputc) for _sputc
    printf5.o(i.__0vfprintf$5) refers to printf5.o(i._printf_core) for _printf_core
    printf5.o(i.__0vfprintf$5) refers to bsp.o(i.fputc) for fputc
    printf5.o(i.__0vprintf$5) refers to printf5.o(i._printf_core) for _printf_core
    printf5.o(i.__0vprintf$5) refers to bsp.o(i.fputc) for fputc
    printf5.o(i.__0vprintf$5) refers to stdout.o(.data) for __stdout
    printf5.o(i.__0vsnprintf$5) refers to printf5.o(i._printf_core) for _printf_core
    printf5.o(i.__0vsnprintf$5) refers to printf5.o(i._snputc) for _snputc
    printf5.o(i.__0vsprintf$5) refers to printf5.o(i._printf_core) for _printf_core
    printf5.o(i.__0vsprintf$5) refers to printf5.o(i._sputc) for _sputc
    printf5.o(i._printf_core) refers to uldiv.o(.text) for __aeabi_uldivmod
    printf6.o(i.__0fprintf$6) refers to printf6.o(i._printf_core) for _printf_core
    printf6.o(i.__0fprintf$6) refers to bsp.o(i.fputc) for fputc
    printf6.o(i.__0printf$6) refers to printf6.o(i._printf_core) for _printf_core
    printf6.o(i.__0printf$6) refers to bsp.o(i.fputc) for fputc
    printf6.o(i.__0printf$6) refers to stdout.o(.data) for __stdout
    printf6.o(i.__0snprintf$6) refers to printf6.o(i._printf_core) for _printf_core
    printf6.o(i.__0snprintf$6) refers to printf6.o(i._snputc) for _snputc
    printf6.o(i.__0sprintf$6) refers to printf6.o(i._printf_core) for _printf_core
    printf6.o(i.__0sprintf$6) refers to printf6.o(i._sputc) for _sputc
    printf6.o(i.__0vfprintf$6) refers to printf6.o(i._printf_core) for _printf_core
    printf6.o(i.__0vfprintf$6) refers to bsp.o(i.fputc) for fputc
    printf6.o(i.__0vprintf$6) refers to printf6.o(i._printf_core) for _printf_core
    printf6.o(i.__0vprintf$6) refers to bsp.o(i.fputc) for fputc
    printf6.o(i.__0vprintf$6) refers to stdout.o(.data) for __stdout
    printf6.o(i.__0vsnprintf$6) refers to printf6.o(i._printf_core) for _printf_core
    printf6.o(i.__0vsnprintf$6) refers to printf6.o(i._snputc) for _snputc
    printf6.o(i.__0vsprintf$6) refers to printf6.o(i._printf_core) for _printf_core
    printf6.o(i.__0vsprintf$6) refers to printf6.o(i._sputc) for _sputc
    printf6.o(i._printf_core) refers to printf6.o(i._printf_pre_padding) for _printf_pre_padding
    printf6.o(i._printf_core) refers to uidiv.o(.text) for __aeabi_uidivmod
    printf6.o(i._printf_core) refers to printf6.o(i._printf_post_padding) for _printf_post_padding
    printf7.o(i.__0fprintf$7) refers to printf7.o(i._printf_core) for _printf_core
    printf7.o(i.__0fprintf$7) refers to bsp.o(i.fputc) for fputc
    printf7.o(i.__0printf$7) refers to printf7.o(i._printf_core) for _printf_core
    printf7.o(i.__0printf$7) refers to bsp.o(i.fputc) for fputc
    printf7.o(i.__0printf$7) refers to stdout.o(.data) for __stdout
    printf7.o(i.__0snprintf$7) refers to printf7.o(i._printf_core) for _printf_core
    printf7.o(i.__0snprintf$7) refers to printf7.o(i._snputc) for _snputc
    printf7.o(i.__0sprintf$7) refers to printf7.o(i._printf_core) for _printf_core
    printf7.o(i.__0sprintf$7) refers to printf7.o(i._sputc) for _sputc
    printf7.o(i.__0vfprintf$7) refers to printf7.o(i._printf_core) for _printf_core
    printf7.o(i.__0vfprintf$7) refers to bsp.o(i.fputc) for fputc
    printf7.o(i.__0vprintf$7) refers to printf7.o(i._printf_core) for _printf_core
    printf7.o(i.__0vprintf$7) refers to bsp.o(i.fputc) for fputc
    printf7.o(i.__0vprintf$7) refers to stdout.o(.data) for __stdout
    printf7.o(i.__0vsnprintf$7) refers to printf7.o(i._printf_core) for _printf_core
    printf7.o(i.__0vsnprintf$7) refers to printf7.o(i._snputc) for _snputc
    printf7.o(i.__0vsprintf$7) refers to printf7.o(i._printf_core) for _printf_core
    printf7.o(i.__0vsprintf$7) refers to printf7.o(i._sputc) for _sputc
    printf7.o(i._printf_core) refers to printf7.o(i._printf_pre_padding) for _printf_pre_padding
    printf7.o(i._printf_core) refers to uldiv.o(.text) for __aeabi_uldivmod
    printf7.o(i._printf_core) refers to printf7.o(i._printf_post_padding) for _printf_post_padding
    printf8.o(i.__0fprintf$8) refers to printf8.o(i._printf_core) for _printf_core
    printf8.o(i.__0fprintf$8) refers to bsp.o(i.fputc) for fputc
    printf8.o(i.__0printf$8) refers to printf8.o(i._printf_core) for _printf_core
    printf8.o(i.__0printf$8) refers to bsp.o(i.fputc) for fputc
    printf8.o(i.__0printf$8) refers to stdout.o(.data) for __stdout
    printf8.o(i.__0snprintf$8) refers to printf8.o(i._printf_core) for _printf_core
    printf8.o(i.__0snprintf$8) refers to printf8.o(i._snputc) for _snputc
    printf8.o(i.__0sprintf$8) refers to printf8.o(i._printf_core) for _printf_core
    printf8.o(i.__0sprintf$8) refers to printf8.o(i._sputc) for _sputc
    printf8.o(i.__0vfprintf$8) refers to printf8.o(i._printf_core) for _printf_core
    printf8.o(i.__0vfprintf$8) refers to bsp.o(i.fputc) for fputc
    printf8.o(i.__0vprintf$8) refers to printf8.o(i._printf_core) for _printf_core
    printf8.o(i.__0vprintf$8) refers to bsp.o(i.fputc) for fputc
    printf8.o(i.__0vprintf$8) refers to stdout.o(.data) for __stdout
    printf8.o(i.__0vsnprintf$8) refers to printf8.o(i._printf_core) for _printf_core
    printf8.o(i.__0vsnprintf$8) refers to printf8.o(i._snputc) for _snputc
    printf8.o(i.__0vsprintf$8) refers to printf8.o(i._printf_core) for _printf_core
    printf8.o(i.__0vsprintf$8) refers to printf8.o(i._sputc) for _sputc
    printf8.o(i._printf_core) refers to printf8.o(i._printf_pre_padding) for _printf_pre_padding
    printf8.o(i._printf_core) refers to uldiv.o(.text) for __aeabi_uldivmod
    printf8.o(i._printf_core) refers to printf8.o(i._printf_post_padding) for _printf_post_padding
    printfa.o(i.__0fprintf) refers (Special) to iusefp.o(.text) for __I$use$fp
    printfa.o(i.__0fprintf) refers to printfa.o(i._printf_core) for _printf_core
    printfa.o(i.__0fprintf) refers to bsp.o(i.fputc) for fputc
    printfa.o(i.__0printf) refers (Special) to iusefp.o(.text) for __I$use$fp
    printfa.o(i.__0printf) refers to printfa.o(i._printf_core) for _printf_core
    printfa.o(i.__0printf) refers to bsp.o(i.fputc) for fputc
    printfa.o(i.__0printf) refers to stdout.o(.data) for __stdout
    printfa.o(i.__0snprintf) refers (Special) to iusefp.o(.text) for __I$use$fp
    printfa.o(i.__0snprintf) refers to printfa.o(i._printf_core) for _printf_core
    printfa.o(i.__0snprintf) refers to printfa.o(i._snputc) for _snputc
    printfa.o(i.__0sprintf) refers (Special) to iusefp.o(.text) for __I$use$fp
    printfa.o(i.__0sprintf) refers to printfa.o(i._printf_core) for _printf_core
    printfa.o(i.__0sprintf) refers to printfa.o(i._sputc) for _sputc
    printfa.o(i.__0vfprintf) refers (Special) to iusefp.o(.text) for __I$use$fp
    printfa.o(i.__0vfprintf) refers to printfa.o(i._printf_core) for _printf_core
    printfa.o(i.__0vfprintf) refers to bsp.o(i.fputc) for fputc
    printfa.o(i.__0vprintf) refers (Special) to iusefp.o(.text) for __I$use$fp
    printfa.o(i.__0vprintf) refers to printfa.o(i._printf_core) for _printf_core
    printfa.o(i.__0vprintf) refers to bsp.o(i.fputc) for fputc
    printfa.o(i.__0vprintf) refers to stdout.o(.data) for __stdout
    printfa.o(i.__0vsnprintf) refers (Special) to iusefp.o(.text) for __I$use$fp
    printfa.o(i.__0vsnprintf) refers to printfa.o(i._printf_core) for _printf_core
    printfa.o(i.__0vsnprintf) refers to printfa.o(i._snputc) for _snputc
    printfa.o(i.__0vsprintf) refers (Special) to iusefp.o(.text) for __I$use$fp
    printfa.o(i.__0vsprintf) refers to printfa.o(i._printf_core) for _printf_core
    printfa.o(i.__0vsprintf) refers to printfa.o(i._sputc) for _sputc
    printfa.o(i._fp_digits) refers (Special) to iusefp.o(.text) for __I$use$fp
    printfa.o(i._fp_digits) refers to dmul.o(.text) for __aeabi_dmul
    printfa.o(i._fp_digits) refers to ddiv.o(.text) for __aeabi_ddiv
    printfa.o(i._fp_digits) refers to cdrcmple.o(.text) for __aeabi_cdrcmple
    printfa.o(i._fp_digits) refers to dadd.o(.text) for __aeabi_dadd
    printfa.o(i._fp_digits) refers to dfixul.o(.text) for __aeabi_d2ulz
    printfa.o(i._fp_digits) refers to uldiv.o(.text) for __aeabi_uldivmod
    printfa.o(i._printf_core) refers (Special) to iusefp.o(.text) for __I$use$fp
    printfa.o(i._printf_core) refers to printfa.o(i._printf_pre_padding) for _printf_pre_padding
    printfa.o(i._printf_core) refers to uldiv.o(.text) for __aeabi_uldivmod
    printfa.o(i._printf_core) refers to printfa.o(i._printf_post_padding) for _printf_post_padding
    printfa.o(i._printf_core) refers to printfa.o(i._fp_digits) for _fp_digits
    printfa.o(i._printf_core) refers to uidiv.o(.text) for __aeabi_uidivmod
    printfa.o(i._printf_post_padding) refers (Special) to iusefp.o(.text) for __I$use$fp
    printfa.o(i._printf_pre_padding) refers (Special) to iusefp.o(.text) for __I$use$fp
    printfa.o(i._snputc) refers (Special) to iusefp.o(.text) for __I$use$fp
    printfa.o(i._sputc) refers (Special) to iusefp.o(.text) for __I$use$fp
    entry2.o(.ARM.Collect$$$$00000001) refers to entry2.o(.ARM.Collect$$$$00002712) for __lit__00000000
    entry2.o(.ARM.Collect$$$$00002712) refers to startup_stm32f10x_cl.o(STACK) for __initial_sp
    entry2.o(__vectab_stack_and_reset_area) refers to startup_stm32f10x_cl.o(STACK) for __initial_sp
    entry2.o(__vectab_stack_and_reset_area) refers to entry.o(.ARM.Collect$$$$00000000) for __main
    entry5.o(.ARM.Collect$$$$00000004) refers to init.o(.text) for __scatterload
    entry8.o(.ARM.Collect$$$$00000009) refers to main.o(i.main) for main
    uldiv.o(.text) refers to llushr.o(.text) for __aeabi_llsr
    uldiv.o(.text) refers to llshl.o(.text) for __aeabi_llsl
    dadd.o(.text) refers to llshl.o(.text) for __aeabi_llsl
    dadd.o(.text) refers to llsshr.o(.text) for __aeabi_lasr
    dadd.o(.text) refers to depilogue.o(.text) for _double_epilogue
    dmul.o(.text) refers to depilogue.o(.text) for _double_epilogue
    ddiv.o(.text) refers to depilogue.o(.text) for _double_round
    dfixul.o(.text) refers to llushr.o(.text) for __aeabi_llsr
    dfixul.o(.text) refers to llshl.o(.text) for __aeabi_llsl
    init.o(.text) refers to entry5.o(.ARM.Collect$$$$00000004) for __main_after_scatterload
    depilogue.o(.text) refers to llshl.o(.text) for __aeabi_llsl
    depilogue.o(.text) refers to llushr.o(.text) for __aeabi_llsr


==============================================================================

Removing Unused input sections from the image.

    Removing main.o(.data), (4 bytes).
    Removing lwip.o(i.Display_IPAddress), (128 bytes).
    Removing lwip.o(i.list_if), (164 bytes).
    Removing lwip.o(.data), (4 bytes).
    Removing stm32f10x_it.o(i.USBWakeUp_IRQHandler), (2 bytes).
    Removing stm32f10x_it.o(i.USB_HP_CAN1_TX_IRQHandler), (2 bytes).
    Removing stm32f10x_it.o(i.USB_LP_CAN1_RX0_IRQHandler), (2 bytes).
    Removing core_cm3.o(.emb_text), (32 bytes).
    Removing misc.o(i.NVIC_SystemLPConfig), (32 bytes).
    Removing misc.o(i.SysTick_CLKSourceConfig), (40 bytes).
    Removing stm32f10x_adc.o(i.ADC_AnalogWatchdogCmd), (20 bytes).
    Removing stm32f10x_adc.o(i.ADC_AnalogWatchdogSingleChannelConfig), (16 bytes).
    Removing stm32f10x_adc.o(i.ADC_AnalogWatchdogThresholdsConfig), (6 bytes).
    Removing stm32f10x_adc.o(i.ADC_AutoInjectedConvCmd), (22 bytes).
    Removing stm32f10x_adc.o(i.ADC_ClearFlag), (6 bytes).
    Removing stm32f10x_adc.o(i.ADC_ClearITPendingBit), (10 bytes).
    Removing stm32f10x_adc.o(i.ADC_Cmd), (22 bytes).
    Removing stm32f10x_adc.o(i.ADC_DMACmd), (22 bytes).
    Removing stm32f10x_adc.o(i.ADC_DeInit), (92 bytes).
    Removing stm32f10x_adc.o(i.ADC_DiscModeChannelCountConfig), (24 bytes).
    Removing stm32f10x_adc.o(i.ADC_DiscModeCmd), (22 bytes).
    Removing stm32f10x_adc.o(i.ADC_ExternalTrigConvCmd), (22 bytes).
    Removing stm32f10x_adc.o(i.ADC_ExternalTrigInjectedConvCmd), (22 bytes).
    Removing stm32f10x_adc.o(i.ADC_ExternalTrigInjectedConvConfig), (16 bytes).
    Removing stm32f10x_adc.o(i.ADC_GetCalibrationStatus), (20 bytes).
    Removing stm32f10x_adc.o(i.ADC_GetConversionValue), (8 bytes).
    Removing stm32f10x_adc.o(i.ADC_GetDualModeConversionValue), (12 bytes).
    Removing stm32f10x_adc.o(i.ADC_GetFlagStatus), (18 bytes).
    Removing stm32f10x_adc.o(i.ADC_GetITStatus), (36 bytes).
    Removing stm32f10x_adc.o(i.ADC_GetInjectedConversionValue), (18 bytes).
    Removing stm32f10x_adc.o(i.ADC_GetResetCalibrationStatus), (20 bytes).
    Removing stm32f10x_adc.o(i.ADC_GetSoftwareStartConvStatus), (20 bytes).
    Removing stm32f10x_adc.o(i.ADC_GetSoftwareStartInjectedConvCmdStatus), (20 bytes).
    Removing stm32f10x_adc.o(i.ADC_ITConfig), (24 bytes).
    Removing stm32f10x_adc.o(i.ADC_Init), (80 bytes).
    Removing stm32f10x_adc.o(i.ADC_InjectedChannelConfig), (130 bytes).
    Removing stm32f10x_adc.o(i.ADC_InjectedDiscModeCmd), (22 bytes).
    Removing stm32f10x_adc.o(i.ADC_InjectedSequencerLengthConfig), (24 bytes).
    Removing stm32f10x_adc.o(i.ADC_RegularChannelConfig), (184 bytes).
    Removing stm32f10x_adc.o(i.ADC_ResetCalibration), (10 bytes).
    Removing stm32f10x_adc.o(i.ADC_SetInjectedOffset), (12 bytes).
    Removing stm32f10x_adc.o(i.ADC_SoftwareStartConvCmd), (22 bytes).
    Removing stm32f10x_adc.o(i.ADC_SoftwareStartInjectedConvCmd), (22 bytes).
    Removing stm32f10x_adc.o(i.ADC_StartCalibration), (10 bytes).
    Removing stm32f10x_adc.o(i.ADC_StructInit), (18 bytes).
    Removing stm32f10x_adc.o(i.ADC_TempSensorVrefintCmd), (36 bytes).
    Removing stm32f10x_bkp.o(i.BKP_ClearFlag), (20 bytes).
    Removing stm32f10x_bkp.o(i.BKP_ClearITPendingBit), (20 bytes).
    Removing stm32f10x_bkp.o(i.BKP_DeInit), (16 bytes).
    Removing stm32f10x_bkp.o(i.BKP_GetFlagStatus), (12 bytes).
    Removing stm32f10x_bkp.o(i.BKP_GetITStatus), (12 bytes).
    Removing stm32f10x_bkp.o(i.BKP_ITConfig), (12 bytes).
    Removing stm32f10x_bkp.o(i.BKP_RTCOutputConfig), (28 bytes).
    Removing stm32f10x_bkp.o(i.BKP_ReadBackupRegister), (16 bytes).
    Removing stm32f10x_bkp.o(i.BKP_SetRTCCalibrationValue), (28 bytes).
    Removing stm32f10x_bkp.o(i.BKP_TamperPinCmd), (12 bytes).
    Removing stm32f10x_bkp.o(i.BKP_TamperPinLevelConfig), (12 bytes).
    Removing stm32f10x_bkp.o(i.BKP_WriteBackupRegister), (16 bytes).
    Removing stm32f10x_can.o(i.CAN_CancelTransmit), (48 bytes).
    Removing stm32f10x_can.o(i.CAN_ClearFlag), (56 bytes).
    Removing stm32f10x_can.o(i.CAN_ClearITPendingBit), (168 bytes).
    Removing stm32f10x_can.o(i.CAN_DBGFreeze), (22 bytes).
    Removing stm32f10x_can.o(i.CAN_DeInit), (56 bytes).
    Removing stm32f10x_can.o(i.CAN_FIFORelease), (22 bytes).
    Removing stm32f10x_can.o(i.CAN_FilterInit), (264 bytes).
    Removing stm32f10x_can.o(i.CAN_GetFlagStatus), (120 bytes).
    Removing stm32f10x_can.o(i.CAN_GetITStatus), (288 bytes).
    Removing stm32f10x_can.o(i.CAN_GetLSBTransmitErrorCounter), (12 bytes).
    Removing stm32f10x_can.o(i.CAN_GetLastErrorCode), (12 bytes).
    Removing stm32f10x_can.o(i.CAN_GetReceiveErrorCounter), (10 bytes).
    Removing stm32f10x_can.o(i.CAN_ITConfig), (18 bytes).
    Removing stm32f10x_can.o(i.CAN_Init), (276 bytes).
    Removing stm32f10x_can.o(i.CAN_MessagePending), (30 bytes).
    Removing stm32f10x_can.o(i.CAN_OperatingModeRequest), (162 bytes).
    Removing stm32f10x_can.o(i.CAN_Receive), (240 bytes).
    Removing stm32f10x_can.o(i.CAN_SlaveStartBank), (52 bytes).
    Removing stm32f10x_can.o(i.CAN_Sleep), (30 bytes).
    Removing stm32f10x_can.o(i.CAN_StructInit), (32 bytes).
    Removing stm32f10x_can.o(i.CAN_TTComModeCmd), (118 bytes).
    Removing stm32f10x_can.o(i.CAN_Transmit), (294 bytes).
    Removing stm32f10x_can.o(i.CAN_TransmitStatus), (160 bytes).
    Removing stm32f10x_can.o(i.CAN_WakeUp), (48 bytes).
    Removing stm32f10x_can.o(i.CheckITStatus), (16 bytes).
    Removing stm32f10x_crc.o(i.CRC_CalcBlockCRC), (36 bytes).
    Removing stm32f10x_crc.o(i.CRC_CalcCRC), (16 bytes).
    Removing stm32f10x_crc.o(i.CRC_GetCRC), (12 bytes).
    Removing stm32f10x_crc.o(i.CRC_GetIDRegister), (12 bytes).
    Removing stm32f10x_crc.o(i.CRC_ResetDR), (12 bytes).
    Removing stm32f10x_crc.o(i.CRC_SetIDRegister), (12 bytes).
    Removing stm32f10x_dac.o(i.DAC_Cmd), (40 bytes).
    Removing stm32f10x_dac.o(i.DAC_DMACmd), (44 bytes).
    Removing stm32f10x_dac.o(i.DAC_DeInit), (22 bytes).
    Removing stm32f10x_dac.o(i.DAC_DualSoftwareTriggerCmd), (36 bytes).
    Removing stm32f10x_dac.o(i.DAC_GetDataOutputValue), (24 bytes).
    Removing stm32f10x_dac.o(i.DAC_Init), (52 bytes).
    Removing stm32f10x_dac.o(i.DAC_SetChannel1Data), (20 bytes).
    Removing stm32f10x_dac.o(i.DAC_SetChannel2Data), (20 bytes).
    Removing stm32f10x_dac.o(i.DAC_SetDualChannelData), (36 bytes).
    Removing stm32f10x_dac.o(i.DAC_SoftwareTriggerCmd), (44 bytes).
    Removing stm32f10x_dac.o(i.DAC_StructInit), (12 bytes).
    Removing stm32f10x_dac.o(i.DAC_WaveGenerationCmd), (40 bytes).
    Removing stm32f10x_dbgmcu.o(i.DBGMCU_Config), (32 bytes).
    Removing stm32f10x_dbgmcu.o(i.DBGMCU_GetDEVID), (16 bytes).
    Removing stm32f10x_dbgmcu.o(i.DBGMCU_GetREVID), (12 bytes).
    Removing stm32f10x_dma.o(i.DMA_ClearFlag), (28 bytes).
    Removing stm32f10x_dma.o(i.DMA_ClearITPendingBit), (28 bytes).
    Removing stm32f10x_dma.o(i.DMA_Cmd), (24 bytes).
    Removing stm32f10x_dma.o(i.DMA_DeInit), (332 bytes).
    Removing stm32f10x_dma.o(i.DMA_GetCurrDataCounter), (8 bytes).
    Removing stm32f10x_dma.o(i.DMA_GetFlagStatus), (44 bytes).
    Removing stm32f10x_dma.o(i.DMA_GetITStatus), (44 bytes).
    Removing stm32f10x_dma.o(i.DMA_ITConfig), (18 bytes).
    Removing stm32f10x_dma.o(i.DMA_Init), (60 bytes).
    Removing stm32f10x_dma.o(i.DMA_SetCurrDataCounter), (4 bytes).
    Removing stm32f10x_dma.o(i.DMA_StructInit), (26 bytes).
    Removing stm32f10x_exti.o(i.EXTI_ClearFlag), (12 bytes).
    Removing stm32f10x_exti.o(i.EXTI_ClearITPendingBit), (12 bytes).
    Removing stm32f10x_exti.o(i.EXTI_DeInit), (36 bytes).
    Removing stm32f10x_exti.o(i.EXTI_GenerateSWInterrupt), (16 bytes).
    Removing stm32f10x_exti.o(i.EXTI_GetFlagStatus), (24 bytes).
    Removing stm32f10x_exti.o(i.EXTI_GetITStatus), (40 bytes).
    Removing stm32f10x_exti.o(i.EXTI_Init), (148 bytes).
    Removing stm32f10x_exti.o(i.EXTI_StructInit), (16 bytes).
    Removing stm32f10x_flash.o(i.FLASH_ClearFlag), (12 bytes).
    Removing stm32f10x_flash.o(i.FLASH_EnableWriteProtection), (196 bytes).
    Removing stm32f10x_flash.o(i.FLASH_EraseAllBank1Pages), (72 bytes).
    Removing stm32f10x_flash.o(i.FLASH_EraseAllPages), (72 bytes).
    Removing stm32f10x_flash.o(i.FLASH_EraseOptionBytes), (168 bytes).
    Removing stm32f10x_flash.o(i.FLASH_ErasePage), (76 bytes).
    Removing stm32f10x_flash.o(i.FLASH_GetBank1Status), (52 bytes).
    Removing stm32f10x_flash.o(i.FLASH_GetFlagStatus), (48 bytes).
    Removing stm32f10x_flash.o(i.FLASH_GetPrefetchBufferStatus), (24 bytes).
    Removing stm32f10x_flash.o(i.FLASH_GetReadOutProtectionStatus), (24 bytes).
    Removing stm32f10x_flash.o(i.FLASH_GetStatus), (52 bytes).
    Removing stm32f10x_flash.o(i.FLASH_GetUserOptionByte), (12 bytes).
    Removing stm32f10x_flash.o(i.FLASH_GetWriteProtectionOptionByte), (12 bytes).
    Removing stm32f10x_flash.o(i.FLASH_HalfCycleAccessCmd), (28 bytes).
    Removing stm32f10x_flash.o(i.FLASH_ITConfig), (32 bytes).
    Removing stm32f10x_flash.o(i.FLASH_Lock), (20 bytes).
    Removing stm32f10x_flash.o(i.FLASH_LockBank1), (20 bytes).
    Removing stm32f10x_flash.o(i.FLASH_PrefetchBufferCmd), (28 bytes).
    Removing stm32f10x_flash.o(i.FLASH_ProgramHalfWord), (64 bytes).
    Removing stm32f10x_flash.o(i.FLASH_ProgramOptionByteData), (84 bytes).
    Removing stm32f10x_flash.o(i.FLASH_ProgramWord), (100 bytes).
    Removing stm32f10x_flash.o(i.FLASH_ReadOutProtection), (172 bytes).
    Removing stm32f10x_flash.o(i.FLASH_SetLatency), (24 bytes).
    Removing stm32f10x_flash.o(i.FLASH_Unlock), (24 bytes).
    Removing stm32f10x_flash.o(i.FLASH_UnlockBank1), (24 bytes).
    Removing stm32f10x_flash.o(i.FLASH_UserOptionByteConfig), (104 bytes).
    Removing stm32f10x_flash.o(i.FLASH_WaitForLastBank1Operation), (38 bytes).
    Removing stm32f10x_flash.o(i.FLASH_WaitForLastOperation), (38 bytes).
    Removing stm32f10x_fsmc.o(i.FSMC_ClearFlag), (72 bytes).
    Removing stm32f10x_fsmc.o(i.FSMC_ClearITPendingBit), (72 bytes).
    Removing stm32f10x_fsmc.o(i.FSMC_GetECC), (28 bytes).
    Removing stm32f10x_fsmc.o(i.FSMC_GetFlagStatus), (56 bytes).
    Removing stm32f10x_fsmc.o(i.FSMC_GetITStatus), (68 bytes).
    Removing stm32f10x_fsmc.o(i.FSMC_ITConfig), (136 bytes).
    Removing stm32f10x_fsmc.o(i.FSMC_NANDCmd), (92 bytes).
    Removing stm32f10x_fsmc.o(i.FSMC_NANDDeInit), (72 bytes).
    Removing stm32f10x_fsmc.o(i.FSMC_NANDECCCmd), (92 bytes).
    Removing stm32f10x_fsmc.o(i.FSMC_NANDInit), (140 bytes).
    Removing stm32f10x_fsmc.o(i.FSMC_NANDStructInit), (54 bytes).
    Removing stm32f10x_fsmc.o(i.FSMC_NORSRAMCmd), (52 bytes).
    Removing stm32f10x_fsmc.o(i.FSMC_NORSRAMDeInit), (56 bytes).
    Removing stm32f10x_fsmc.o(i.FSMC_NORSRAMInit), (224 bytes).
    Removing stm32f10x_fsmc.o(i.FSMC_NORSRAMStructInit), (114 bytes).
    Removing stm32f10x_fsmc.o(i.FSMC_PCCARDCmd), (48 bytes).
    Removing stm32f10x_fsmc.o(i.FSMC_PCCARDDeInit), (48 bytes).
    Removing stm32f10x_fsmc.o(i.FSMC_PCCARDInit), (136 bytes).
    Removing stm32f10x_fsmc.o(i.FSMC_PCCARDStructInit), (60 bytes).
    Removing stm32f10x_gpio.o(i.GPIO_AFIODeInit), (20 bytes).
    Removing stm32f10x_gpio.o(i.GPIO_DeInit), (200 bytes).
    Removing stm32f10x_gpio.o(i.GPIO_EXTILineConfig), (64 bytes).
    Removing stm32f10x_gpio.o(i.GPIO_EventOutputCmd), (12 bytes).
    Removing stm32f10x_gpio.o(i.GPIO_EventOutputConfig), (32 bytes).
    Removing stm32f10x_gpio.o(i.GPIO_PinLockConfig), (18 bytes).
    Removing stm32f10x_gpio.o(i.GPIO_ReadInputData), (8 bytes).
    Removing stm32f10x_gpio.o(i.GPIO_ReadInputDataBit), (18 bytes).
    Removing stm32f10x_gpio.o(i.GPIO_ReadOutputData), (8 bytes).
    Removing stm32f10x_gpio.o(i.GPIO_ReadOutputDataBit), (18 bytes).
    Removing stm32f10x_gpio.o(i.GPIO_ResetBits), (4 bytes).
    Removing stm32f10x_gpio.o(i.GPIO_StructInit), (16 bytes).
    Removing stm32f10x_gpio.o(i.GPIO_Write), (4 bytes).
    Removing stm32f10x_gpio.o(i.GPIO_WriteBit), (10 bytes).
    Removing stm32f10x_i2c.o(i.I2C_ARPCmd), (24 bytes).
    Removing stm32f10x_i2c.o(i.I2C_AcknowledgeConfig), (24 bytes).
    Removing stm32f10x_i2c.o(i.I2C_CalculatePEC), (24 bytes).
    Removing stm32f10x_i2c.o(i.I2C_CheckEvent), (42 bytes).
    Removing stm32f10x_i2c.o(i.I2C_ClearFlag), (12 bytes).
    Removing stm32f10x_i2c.o(i.I2C_ClearITPendingBit), (12 bytes).
    Removing stm32f10x_i2c.o(i.I2C_Cmd), (24 bytes).
    Removing stm32f10x_i2c.o(i.I2C_DMACmd), (24 bytes).
    Removing stm32f10x_i2c.o(i.I2C_DMALastTransferCmd), (24 bytes).
    Removing stm32f10x_i2c.o(i.I2C_DeInit), (56 bytes).
    Removing stm32f10x_i2c.o(i.I2C_DualAddressCmd), (24 bytes).
    Removing stm32f10x_i2c.o(i.I2C_FastModeDutyCycleConfig), (28 bytes).
    Removing stm32f10x_i2c.o(i.I2C_GeneralCallCmd), (24 bytes).
    Removing stm32f10x_i2c.o(i.I2C_GenerateSTART), (24 bytes).
    Removing stm32f10x_i2c.o(i.I2C_GenerateSTOP), (24 bytes).
    Removing stm32f10x_i2c.o(i.I2C_GetFlagStatus), (42 bytes).
    Removing stm32f10x_i2c.o(i.I2C_GetITStatus), (38 bytes).
    Removing stm32f10x_i2c.o(i.I2C_GetLastEvent), (26 bytes).
    Removing stm32f10x_i2c.o(i.I2C_GetPEC), (8 bytes).
    Removing stm32f10x_i2c.o(i.I2C_ITConfig), (18 bytes).
    Removing stm32f10x_i2c.o(i.I2C_Init), (236 bytes).
    Removing stm32f10x_i2c.o(i.I2C_NACKPositionConfig), (28 bytes).
    Removing stm32f10x_i2c.o(i.I2C_OwnAddress2Config), (22 bytes).
    Removing stm32f10x_i2c.o(i.I2C_PECPositionConfig), (28 bytes).
    Removing stm32f10x_i2c.o(i.I2C_ReadRegister), (12 bytes).
    Removing stm32f10x_i2c.o(i.I2C_ReceiveData), (8 bytes).
    Removing stm32f10x_i2c.o(i.I2C_SMBusAlertConfig), (28 bytes).
    Removing stm32f10x_i2c.o(i.I2C_Send7bitAddress), (18 bytes).
    Removing stm32f10x_i2c.o(i.I2C_SendData), (4 bytes).
    Removing stm32f10x_i2c.o(i.I2C_SoftwareResetCmd), (22 bytes).
    Removing stm32f10x_i2c.o(i.I2C_StretchClockCmd), (24 bytes).
    Removing stm32f10x_i2c.o(i.I2C_StructInit), (30 bytes).
    Removing stm32f10x_i2c.o(i.I2C_TransmitPEC), (24 bytes).
    Removing stm32f10x_iwdg.o(i.IWDG_Enable), (16 bytes).
    Removing stm32f10x_iwdg.o(i.IWDG_GetFlagStatus), (24 bytes).
    Removing stm32f10x_iwdg.o(i.IWDG_ReloadCounter), (16 bytes).
    Removing stm32f10x_iwdg.o(i.IWDG_SetPrescaler), (12 bytes).
    Removing stm32f10x_iwdg.o(i.IWDG_SetReload), (12 bytes).
    Removing stm32f10x_iwdg.o(i.IWDG_WriteAccessCmd), (12 bytes).
    Removing stm32f10x_pwr.o(i.PWR_BackupAccessCmd), (12 bytes).
    Removing stm32f10x_pwr.o(i.PWR_ClearFlag), (20 bytes).
    Removing stm32f10x_pwr.o(i.PWR_DeInit), (22 bytes).
    Removing stm32f10x_pwr.o(i.PWR_EnterSTANDBYMode), (52 bytes).
    Removing stm32f10x_pwr.o(i.PWR_EnterSTOPMode), (64 bytes).
    Removing stm32f10x_pwr.o(i.PWR_GetFlagStatus), (24 bytes).
    Removing stm32f10x_pwr.o(i.PWR_PVDCmd), (12 bytes).
    Removing stm32f10x_pwr.o(i.PWR_PVDLevelConfig), (24 bytes).
    Removing stm32f10x_pwr.o(i.PWR_WakeUpPinCmd), (12 bytes).
    Removing stm32f10x_rcc.o(i.RCC_ADCCLKConfig), (24 bytes).
    Removing stm32f10x_rcc.o(i.RCC_APB1PeriphClockCmd), (32 bytes).
    Removing stm32f10x_rcc.o(i.RCC_APB1PeriphResetCmd), (32 bytes).
    Removing stm32f10x_rcc.o(i.RCC_APB2PeriphResetCmd), (32 bytes).
    Removing stm32f10x_rcc.o(i.RCC_AdjustHSICalibrationValue), (24 bytes).
    Removing stm32f10x_rcc.o(i.RCC_BackupResetCmd), (12 bytes).
    Removing stm32f10x_rcc.o(i.RCC_ClearFlag), (20 bytes).
    Removing stm32f10x_rcc.o(i.RCC_ClearITPendingBit), (12 bytes).
    Removing stm32f10x_rcc.o(i.RCC_ClockSecuritySystemCmd), (12 bytes).
    Removing stm32f10x_rcc.o(i.RCC_DeInit), (92 bytes).
    Removing stm32f10x_rcc.o(i.RCC_GetITStatus), (24 bytes).
    Removing stm32f10x_rcc.o(i.RCC_GetSYSCLKSource), (16 bytes).
    Removing stm32f10x_rcc.o(i.RCC_HCLKConfig), (24 bytes).
    Removing stm32f10x_rcc.o(i.RCC_HSEConfig), (76 bytes).
    Removing stm32f10x_rcc.o(i.RCC_HSICmd), (12 bytes).
    Removing stm32f10x_rcc.o(i.RCC_I2S2CLKConfig), (12 bytes).
    Removing stm32f10x_rcc.o(i.RCC_I2S3CLKConfig), (12 bytes).
    Removing stm32f10x_rcc.o(i.RCC_ITConfig), (32 bytes).
    Removing stm32f10x_rcc.o(i.RCC_LSEConfig), (52 bytes).
    Removing stm32f10x_rcc.o(i.RCC_LSICmd), (12 bytes).
    Removing stm32f10x_rcc.o(i.RCC_OTGFSCLKConfig), (12 bytes).
    Removing stm32f10x_rcc.o(i.RCC_PCLK1Config), (24 bytes).
    Removing stm32f10x_rcc.o(i.RCC_PCLK2Config), (24 bytes).
    Removing stm32f10x_rcc.o(i.RCC_PLL2Cmd), (12 bytes).
    Removing stm32f10x_rcc.o(i.RCC_PLL2Config), (24 bytes).
    Removing stm32f10x_rcc.o(i.RCC_PLLCmd), (12 bytes).
    Removing stm32f10x_rcc.o(i.RCC_PLLConfig), (28 bytes).
    Removing stm32f10x_rcc.o(i.RCC_PREDIV1Config), (32 bytes).
    Removing stm32f10x_rcc.o(i.RCC_PREDIV2Config), (24 bytes).
    Removing stm32f10x_rcc.o(i.RCC_RTCCLKCmd), (12 bytes).
    Removing stm32f10x_rcc.o(i.RCC_RTCCLKConfig), (16 bytes).
    Removing stm32f10x_rcc.o(i.RCC_SYSCLKConfig), (24 bytes).
    Removing stm32f10x_rcc.o(i.RCC_WaitForHSEStartUp), (48 bytes).
    Removing stm32f10x_rtc.o(i.RTC_ClearFlag), (16 bytes).
    Removing stm32f10x_rtc.o(i.RTC_ClearITPendingBit), (16 bytes).
    Removing stm32f10x_rtc.o(i.RTC_EnterConfigMode), (20 bytes).
    Removing stm32f10x_rtc.o(i.RTC_ExitConfigMode), (20 bytes).
    Removing stm32f10x_rtc.o(i.RTC_GetCounter), (20 bytes).
    Removing stm32f10x_rtc.o(i.RTC_GetDivider), (24 bytes).
    Removing stm32f10x_rtc.o(i.RTC_GetFlagStatus), (24 bytes).
    Removing stm32f10x_rtc.o(i.RTC_GetITStatus), (36 bytes).
    Removing stm32f10x_rtc.o(i.RTC_ITConfig), (32 bytes).
    Removing stm32f10x_rtc.o(i.RTC_SetAlarm), (28 bytes).
    Removing stm32f10x_rtc.o(i.RTC_SetCounter), (28 bytes).
    Removing stm32f10x_rtc.o(i.RTC_SetPrescaler), (32 bytes).
    Removing stm32f10x_rtc.o(i.RTC_WaitForLastTask), (20 bytes).
    Removing stm32f10x_rtc.o(i.RTC_WaitForSynchro), (32 bytes).
    Removing stm32f10x_sdio.o(i.SDIO_CEATAITCmd), (16 bytes).
    Removing stm32f10x_sdio.o(i.SDIO_ClearFlag), (12 bytes).
    Removing stm32f10x_sdio.o(i.SDIO_ClearITPendingBit), (12 bytes).
    Removing stm32f10x_sdio.o(i.SDIO_ClockCmd), (12 bytes).
    Removing stm32f10x_sdio.o(i.SDIO_CmdStructInit), (14 bytes).
    Removing stm32f10x_sdio.o(i.SDIO_CommandCompletionCmd), (12 bytes).
    Removing stm32f10x_sdio.o(i.SDIO_DMACmd), (12 bytes).
    Removing stm32f10x_sdio.o(i.SDIO_DataConfig), (48 bytes).
    Removing stm32f10x_sdio.o(i.SDIO_DataStructInit), (20 bytes).
    Removing stm32f10x_sdio.o(i.SDIO_DeInit), (36 bytes).
    Removing stm32f10x_sdio.o(i.SDIO_GetCommandResponse), (12 bytes).
    Removing stm32f10x_sdio.o(i.SDIO_GetDataCounter), (12 bytes).
    Removing stm32f10x_sdio.o(i.SDIO_GetFIFOCount), (12 bytes).
    Removing stm32f10x_sdio.o(i.SDIO_GetFlagStatus), (24 bytes).
    Removing stm32f10x_sdio.o(i.SDIO_GetITStatus), (24 bytes).
    Removing stm32f10x_sdio.o(i.SDIO_GetPowerState), (16 bytes).
    Removing stm32f10x_sdio.o(i.SDIO_GetResponse), (16 bytes).
    Removing stm32f10x_sdio.o(i.SDIO_ITConfig), (32 bytes).
    Removing stm32f10x_sdio.o(i.SDIO_Init), (48 bytes).
    Removing stm32f10x_sdio.o(i.SDIO_ReadData), (12 bytes).
    Removing stm32f10x_sdio.o(i.SDIO_SendCEATACmd), (12 bytes).
    Removing stm32f10x_sdio.o(i.SDIO_SendCommand), (44 bytes).
    Removing stm32f10x_sdio.o(i.SDIO_SendSDIOSuspendCmd), (12 bytes).
    Removing stm32f10x_sdio.o(i.SDIO_SetPowerState), (28 bytes).
    Removing stm32f10x_sdio.o(i.SDIO_SetSDIOOperation), (12 bytes).
    Removing stm32f10x_sdio.o(i.SDIO_SetSDIOReadWaitMode), (12 bytes).
    Removing stm32f10x_sdio.o(i.SDIO_StartSDIOReadWait), (12 bytes).
    Removing stm32f10x_sdio.o(i.SDIO_StopSDIOReadWait), (12 bytes).
    Removing stm32f10x_sdio.o(i.SDIO_StructInit), (16 bytes).
    Removing stm32f10x_sdio.o(i.SDIO_WriteData), (12 bytes).
    Removing stm32f10x_spi.o(i.I2S_Cmd), (24 bytes).
    Removing stm32f10x_spi.o(i.I2S_Init), (304 bytes).
    Removing stm32f10x_spi.o(i.I2S_StructInit), (20 bytes).
    Removing stm32f10x_spi.o(i.SPI_BiDirectionalLineConfig), (28 bytes).
    Removing stm32f10x_spi.o(i.SPI_CalculateCRC), (24 bytes).
    Removing stm32f10x_spi.o(i.SPI_Cmd), (24 bytes).
    Removing stm32f10x_spi.o(i.SPI_DataSizeConfig), (18 bytes).
    Removing stm32f10x_spi.o(i.SPI_GetCRC), (16 bytes).
    Removing stm32f10x_spi.o(i.SPI_GetCRCPolynomial), (6 bytes).
    Removing stm32f10x_spi.o(i.SPI_I2S_ClearFlag), (6 bytes).
    Removing stm32f10x_spi.o(i.SPI_I2S_ClearITPendingBit), (20 bytes).
    Removing stm32f10x_spi.o(i.SPI_I2S_DMACmd), (18 bytes).
    Removing stm32f10x_spi.o(i.SPI_I2S_DeInit), (88 bytes).
    Removing stm32f10x_spi.o(i.SPI_I2S_GetFlagStatus), (18 bytes).
    Removing stm32f10x_spi.o(i.SPI_I2S_GetITStatus), (52 bytes).
    Removing stm32f10x_spi.o(i.SPI_I2S_ITConfig), (32 bytes).
    Removing stm32f10x_spi.o(i.SPI_I2S_ReceiveData), (6 bytes).
    Removing stm32f10x_spi.o(i.SPI_I2S_SendData), (4 bytes).
    Removing stm32f10x_spi.o(i.SPI_Init), (60 bytes).
    Removing stm32f10x_spi.o(i.SPI_NSSInternalSoftwareConfig), (30 bytes).
    Removing stm32f10x_spi.o(i.SPI_SSOutputCmd), (24 bytes).
    Removing stm32f10x_spi.o(i.SPI_StructInit), (24 bytes).
    Removing stm32f10x_spi.o(i.SPI_TransmitCRC), (10 bytes).
    Removing stm32f10x_tim.o(i.TI1_Config), (128 bytes).
    Removing stm32f10x_tim.o(i.TI2_Config), (152 bytes).
    Removing stm32f10x_tim.o(i.TI3_Config), (144 bytes).
    Removing stm32f10x_tim.o(i.TI4_Config), (152 bytes).
    Removing stm32f10x_tim.o(i.TIM_ARRPreloadConfig), (24 bytes).
    Removing stm32f10x_tim.o(i.TIM_BDTRConfig), (32 bytes).
    Removing stm32f10x_tim.o(i.TIM_BDTRStructInit), (18 bytes).
    Removing stm32f10x_tim.o(i.TIM_CCPreloadControl), (24 bytes).
    Removing stm32f10x_tim.o(i.TIM_CCxCmd), (30 bytes).
    Removing stm32f10x_tim.o(i.TIM_CCxNCmd), (30 bytes).
    Removing stm32f10x_tim.o(i.TIM_ClearFlag), (6 bytes).
    Removing stm32f10x_tim.o(i.TIM_ClearITPendingBit), (6 bytes).
    Removing stm32f10x_tim.o(i.TIM_ClearOC1Ref), (18 bytes).
    Removing stm32f10x_tim.o(i.TIM_ClearOC2Ref), (24 bytes).
    Removing stm32f10x_tim.o(i.TIM_ClearOC3Ref), (18 bytes).
    Removing stm32f10x_tim.o(i.TIM_ClearOC4Ref), (24 bytes).
    Removing stm32f10x_tim.o(i.TIM_Cmd), (24 bytes).
    Removing stm32f10x_tim.o(i.TIM_CounterModeConfig), (18 bytes).
    Removing stm32f10x_tim.o(i.TIM_CtrlPWMOutputs), (30 bytes).
    Removing stm32f10x_tim.o(i.TIM_DMACmd), (18 bytes).
    Removing stm32f10x_tim.o(i.TIM_DMAConfig), (10 bytes).
    Removing stm32f10x_tim.o(i.TIM_DeInit), (488 bytes).
    Removing stm32f10x_tim.o(i.TIM_ETRClockMode1Config), (54 bytes).
    Removing stm32f10x_tim.o(i.TIM_ETRClockMode2Config), (32 bytes).
    Removing stm32f10x_tim.o(i.TIM_ETRConfig), (28 bytes).
    Removing stm32f10x_tim.o(i.TIM_EncoderInterfaceConfig), (66 bytes).
    Removing stm32f10x_tim.o(i.TIM_ForcedOC1Config), (18 bytes).
    Removing stm32f10x_tim.o(i.TIM_ForcedOC2Config), (26 bytes).
    Removing stm32f10x_tim.o(i.TIM_ForcedOC3Config), (18 bytes).
    Removing stm32f10x_tim.o(i.TIM_ForcedOC4Config), (26 bytes).
    Removing stm32f10x_tim.o(i.TIM_GenerateEvent), (4 bytes).
    Removing stm32f10x_tim.o(i.TIM_GetCapture1), (6 bytes).
    Removing stm32f10x_tim.o(i.TIM_GetCapture2), (6 bytes).
    Removing stm32f10x_tim.o(i.TIM_GetCapture3), (6 bytes).
    Removing stm32f10x_tim.o(i.TIM_GetCapture4), (8 bytes).
    Removing stm32f10x_tim.o(i.TIM_GetCounter), (6 bytes).
    Removing stm32f10x_tim.o(i.TIM_GetFlagStatus), (18 bytes).
    Removing stm32f10x_tim.o(i.TIM_GetITStatus), (34 bytes).
    Removing stm32f10x_tim.o(i.TIM_GetPrescaler), (6 bytes).
    Removing stm32f10x_tim.o(i.TIM_ICInit), (172 bytes).
    Removing stm32f10x_tim.o(i.TIM_ICStructInit), (18 bytes).
    Removing stm32f10x_tim.o(i.TIM_ITConfig), (18 bytes).
    Removing stm32f10x_tim.o(i.TIM_ITRxExternalClockConfig), (24 bytes).
    Removing stm32f10x_tim.o(i.TIM_InternalClockConfig), (12 bytes).
    Removing stm32f10x_tim.o(i.TIM_OC1FastConfig), (18 bytes).
    Removing stm32f10x_tim.o(i.TIM_OC1Init), (152 bytes).
    Removing stm32f10x_tim.o(i.TIM_OC1NPolarityConfig), (18 bytes).
    Removing stm32f10x_tim.o(i.TIM_OC1PolarityConfig), (18 bytes).
    Removing stm32f10x_tim.o(i.TIM_OC1PreloadConfig), (18 bytes).
    Removing stm32f10x_tim.o(i.TIM_OC2FastConfig), (26 bytes).
    Removing stm32f10x_tim.o(i.TIM_OC2Init), (164 bytes).
    Removing stm32f10x_tim.o(i.TIM_OC2NPolarityConfig), (26 bytes).
    Removing stm32f10x_tim.o(i.TIM_OC2PolarityConfig), (26 bytes).
    Removing stm32f10x_tim.o(i.TIM_OC2PreloadConfig), (26 bytes).
    Removing stm32f10x_tim.o(i.TIM_OC3FastConfig), (18 bytes).
    Removing stm32f10x_tim.o(i.TIM_OC3Init), (160 bytes).
    Removing stm32f10x_tim.o(i.TIM_OC3NPolarityConfig), (26 bytes).
    Removing stm32f10x_tim.o(i.TIM_OC3PolarityConfig), (26 bytes).
    Removing stm32f10x_tim.o(i.TIM_OC3PreloadConfig), (18 bytes).
    Removing stm32f10x_tim.o(i.TIM_OC4FastConfig), (26 bytes).
    Removing stm32f10x_tim.o(i.TIM_OC4Init), (124 bytes).
    Removing stm32f10x_tim.o(i.TIM_OC4PolarityConfig), (26 bytes).
    Removing stm32f10x_tim.o(i.TIM_OC4PreloadConfig), (26 bytes).
    Removing stm32f10x_tim.o(i.TIM_OCStructInit), (20 bytes).
    Removing stm32f10x_tim.o(i.TIM_PWMIConfig), (124 bytes).
    Removing stm32f10x_tim.o(i.TIM_PrescalerConfig), (6 bytes).
    Removing stm32f10x_tim.o(i.TIM_SelectCCDMA), (24 bytes).
    Removing stm32f10x_tim.o(i.TIM_SelectCOM), (24 bytes).
    Removing stm32f10x_tim.o(i.TIM_SelectHallSensor), (24 bytes).
    Removing stm32f10x_tim.o(i.TIM_SelectInputTrigger), (18 bytes).
    Removing stm32f10x_tim.o(i.TIM_SelectMasterSlaveMode), (18 bytes).
    Removing stm32f10x_tim.o(i.TIM_SelectOCxM), (82 bytes).
    Removing stm32f10x_tim.o(i.TIM_SelectOnePulseMode), (18 bytes).
    Removing stm32f10x_tim.o(i.TIM_SelectOutputTrigger), (18 bytes).
    Removing stm32f10x_tim.o(i.TIM_SelectSlaveMode), (18 bytes).
    Removing stm32f10x_tim.o(i.TIM_SetAutoreload), (4 bytes).
    Removing stm32f10x_tim.o(i.TIM_SetClockDivision), (18 bytes).
    Removing stm32f10x_tim.o(i.TIM_SetCompare1), (4 bytes).
    Removing stm32f10x_tim.o(i.TIM_SetCompare2), (4 bytes).
    Removing stm32f10x_tim.o(i.TIM_SetCompare3), (4 bytes).
    Removing stm32f10x_tim.o(i.TIM_SetCompare4), (6 bytes).
    Removing stm32f10x_tim.o(i.TIM_SetCounter), (4 bytes).
    Removing stm32f10x_tim.o(i.TIM_SetIC1Prescaler), (18 bytes).
    Removing stm32f10x_tim.o(i.TIM_SetIC2Prescaler), (26 bytes).
    Removing stm32f10x_tim.o(i.TIM_SetIC3Prescaler), (18 bytes).
    Removing stm32f10x_tim.o(i.TIM_SetIC4Prescaler), (26 bytes).
    Removing stm32f10x_tim.o(i.TIM_TIxExternalClockConfig), (62 bytes).
    Removing stm32f10x_tim.o(i.TIM_TimeBaseInit), (164 bytes).
    Removing stm32f10x_tim.o(i.TIM_TimeBaseStructInit), (18 bytes).
    Removing stm32f10x_tim.o(i.TIM_UpdateDisableConfig), (24 bytes).
    Removing stm32f10x_tim.o(i.TIM_UpdateRequestConfig), (24 bytes).
    Removing stm32f10x_usart.o(i.USART_ClearFlag), (18 bytes).
    Removing stm32f10x_usart.o(i.USART_ClearITPendingBit), (30 bytes).
    Removing stm32f10x_usart.o(i.USART_ClockStructInit), (12 bytes).
    Removing stm32f10x_usart.o(i.USART_DMACmd), (18 bytes).
    Removing stm32f10x_usart.o(i.USART_DeInit), (156 bytes).
    Removing stm32f10x_usart.o(i.USART_GetFlagStatus), (26 bytes).
    Removing stm32f10x_usart.o(i.USART_GetITStatus), (84 bytes).
    Removing stm32f10x_usart.o(i.USART_HalfDuplexCmd), (24 bytes).
    Removing stm32f10x_usart.o(i.USART_ITConfig), (74 bytes).
    Removing stm32f10x_usart.o(i.USART_IrDACmd), (24 bytes).
    Removing stm32f10x_usart.o(i.USART_IrDAConfig), (18 bytes).
    Removing stm32f10x_usart.o(i.USART_LINBreakDetectLengthConfig), (18 bytes).
    Removing stm32f10x_usart.o(i.USART_LINCmd), (24 bytes).
    Removing stm32f10x_usart.o(i.USART_OneBitMethodCmd), (24 bytes).
    Removing stm32f10x_usart.o(i.USART_OverSampling8Cmd), (22 bytes).
    Removing stm32f10x_usart.o(i.USART_ReceiveData), (10 bytes).
    Removing stm32f10x_usart.o(i.USART_ReceiverWakeUpCmd), (24 bytes).
    Removing stm32f10x_usart.o(i.USART_SendBreak), (10 bytes).
    Removing stm32f10x_usart.o(i.USART_SetAddress), (18 bytes).
    Removing stm32f10x_usart.o(i.USART_SetGuardTime), (16 bytes).
    Removing stm32f10x_usart.o(i.USART_SetPrescaler), (16 bytes).
    Removing stm32f10x_usart.o(i.USART_SmartCardCmd), (24 bytes).
    Removing stm32f10x_usart.o(i.USART_SmartCardNACKCmd), (24 bytes).
    Removing stm32f10x_usart.o(i.USART_StructInit), (24 bytes).
    Removing stm32f10x_usart.o(i.USART_WakeUpConfig), (18 bytes).
    Removing stm32f10x_wwdg.o(i.WWDG_ClearFlag), (12 bytes).
    Removing stm32f10x_wwdg.o(i.WWDG_DeInit), (22 bytes).
    Removing stm32f10x_wwdg.o(i.WWDG_Enable), (16 bytes).
    Removing stm32f10x_wwdg.o(i.WWDG_EnableIT), (12 bytes).
    Removing stm32f10x_wwdg.o(i.WWDG_GetFlagStatus), (12 bytes).
    Removing stm32f10x_wwdg.o(i.WWDG_SetCounter), (16 bytes).
    Removing stm32f10x_wwdg.o(i.WWDG_SetPrescaler), (24 bytes).
    Removing stm32f10x_wwdg.o(i.WWDG_SetWindowValue), (28 bytes).
    Removing system_stm32f10x.o(i.SystemCoreClockUpdate), (256 bytes).
    Removing stm32_eth.o(i.ETH_BackPressureActivationCmd), (36 bytes).
    Removing stm32_eth.o(i.ETH_DMAClearFlag), (12 bytes).
    Removing stm32_eth.o(i.ETH_DMAPTPRxDescChainInit), (116 bytes).
    Removing stm32_eth.o(i.ETH_DMAPTPTxDescChainInit), (112 bytes).
    Removing stm32_eth.o(i.ETH_DMARxDescEndOfRingCmd), (22 bytes).
    Removing stm32_eth.o(i.ETH_DMARxDescRingInit), (96 bytes).
    Removing stm32_eth.o(i.ETH_DMARxDescSecondAddressChainedCmd), (22 bytes).
    Removing stm32_eth.o(i.ETH_DMATxDescBufferSizeConfig), (14 bytes).
    Removing stm32_eth.o(i.ETH_DMATxDescCRCCmd), (22 bytes).
    Removing stm32_eth.o(i.ETH_DMATxDescEndOfRingCmd), (22 bytes).
    Removing stm32_eth.o(i.ETH_DMATxDescFrameSegmentConfig), (8 bytes).
    Removing stm32_eth.o(i.ETH_DMATxDescRingInit), (80 bytes).
    Removing stm32_eth.o(i.ETH_DMATxDescSecondAddressChainedCmd), (22 bytes).
    Removing stm32_eth.o(i.ETH_DMATxDescShortFramePaddingCmd), (22 bytes).
    Removing stm32_eth.o(i.ETH_DMATxDescTimeStampCmd), (22 bytes).
    Removing stm32_eth.o(i.ETH_DMATxDescTransmitITConfig), (22 bytes).
    Removing stm32_eth.o(i.ETH_DropRxPkt), (88 bytes).
    Removing stm32_eth.o(i.ETH_EnablePTPTimeStampAddend), (20 bytes).
    Removing stm32_eth.o(i.ETH_EnablePTPTimeStampInterruptTrigger), (20 bytes).
    Removing stm32_eth.o(i.ETH_EnablePTPTimeStampUpdate), (20 bytes).
    Removing stm32_eth.o(i.ETH_GetBufferUnavailableMissedFrameCounter), (12 bytes).
    Removing stm32_eth.o(i.ETH_GetCurrentRxBufferAddress), (12 bytes).
    Removing stm32_eth.o(i.ETH_GetCurrentRxDescStartAddress), (12 bytes).
    Removing stm32_eth.o(i.ETH_GetCurrentTxBufferAddress), (12 bytes).
    Removing stm32_eth.o(i.ETH_GetCurrentTxDescStartAddress), (12 bytes).
    Removing stm32_eth.o(i.ETH_GetDMAFlagStatus), (24 bytes).
    Removing stm32_eth.o(i.ETH_GetDMAITStatus), (24 bytes).
    Removing stm32_eth.o(i.ETH_GetDMAOverflowStatus), (24 bytes).
    Removing stm32_eth.o(i.ETH_GetDMARxDescBufferSize), (20 bytes).
    Removing stm32_eth.o(i.ETH_GetDMARxDescFlagStatus), (18 bytes).
    Removing stm32_eth.o(i.ETH_GetDMATxDescCollisionCount), (10 bytes).
    Removing stm32_eth.o(i.ETH_GetDMATxDescFlagStatus), (18 bytes).
    Removing stm32_eth.o(i.ETH_GetFlowControlBusyStatus), (24 bytes).
    Removing stm32_eth.o(i.ETH_GetFlushTransmitFIFOStatus), (24 bytes).
    Removing stm32_eth.o(i.ETH_GetMACAddress), (40 bytes).
    Removing stm32_eth.o(i.ETH_GetMACFlagStatus), (24 bytes).
    Removing stm32_eth.o(i.ETH_GetMACITStatus), (24 bytes).
    Removing stm32_eth.o(i.ETH_GetMMCITStatus), (72 bytes).
    Removing stm32_eth.o(i.ETH_GetMMCRegister), (12 bytes).
    Removing stm32_eth.o(i.ETH_GetPMTFlagStatus), (24 bytes).
    Removing stm32_eth.o(i.ETH_GetPTPFlagStatus), (24 bytes).
    Removing stm32_eth.o(i.ETH_GetPTPRegister), (12 bytes).
    Removing stm32_eth.o(i.ETH_GetReceiveProcessState), (16 bytes).
    Removing stm32_eth.o(i.ETH_GetRxOverflowMissedFrameCounter), (16 bytes).
    Removing stm32_eth.o(i.ETH_GetTransmitProcessState), (16 bytes).
    Removing stm32_eth.o(i.ETH_GlobalUnicastWakeUpCmd), (36 bytes).
    Removing stm32_eth.o(i.ETH_HandlePTPRxPkt), (260 bytes).
    Removing stm32_eth.o(i.ETH_HandlePTPTxPkt), (320 bytes).
    Removing stm32_eth.o(i.ETH_HandleRxPkt), (204 bytes).
    Removing stm32_eth.o(i.ETH_HandleTxPkt), (184 bytes).
    Removing stm32_eth.o(i.ETH_InitializePTPTimeStamp), (20 bytes).
    Removing stm32_eth.o(i.ETH_InitiatePauseControlFrame), (20 bytes).
    Removing stm32_eth.o(i.ETH_MACAddressFilterConfig), (44 bytes).
    Removing stm32_eth.o(i.ETH_MACAddressMaskBytesFilterConfig), (36 bytes).
    Removing stm32_eth.o(i.ETH_MACAddressPerfectFilterCmd), (44 bytes).
    Removing stm32_eth.o(i.ETH_MACITConfig), (32 bytes).
    Removing stm32_eth.o(i.ETH_MMCCounterFreezeCmd), (44 bytes).
    Removing stm32_eth.o(i.ETH_MMCCounterRolloverCmd), (44 bytes).
    Removing stm32_eth.o(i.ETH_MMCCountersReset), (24 bytes).
    Removing stm32_eth.o(i.ETH_MMCITConfig), (92 bytes).
    Removing stm32_eth.o(i.ETH_MMCResetOnReadCmd), (44 bytes).
    Removing stm32_eth.o(i.ETH_MagicPacketDetectionCmd), (36 bytes).
    Removing stm32_eth.o(i.ETH_PHYLoopBackCmd), (52 bytes).
    Removing stm32_eth.o(i.ETH_PTPTimeStampCmd), (36 bytes).
    Removing stm32_eth.o(i.ETH_PTPUpdateMethodConfig), (36 bytes).
    Removing stm32_eth.o(i.ETH_PowerDownCmd), (36 bytes).
    Removing stm32_eth.o(i.ETH_ResetWakeUpFrameFilterRegisterPointer), (20 bytes).
    Removing stm32_eth.o(i.ETH_ResumeDMAReception), (12 bytes).
    Removing stm32_eth.o(i.ETH_ResumeDMATransmission), (12 bytes).
    Removing stm32_eth.o(i.ETH_SetDMARxDescOwnBit), (10 bytes).
    Removing stm32_eth.o(i.ETH_SetDMATxDescOwnBit), (10 bytes).
    Removing stm32_eth.o(i.ETH_SetPTPSubSecondIncrement), (12 bytes).
    Removing stm32_eth.o(i.ETH_SetPTPTargetTime), (16 bytes).
    Removing stm32_eth.o(i.ETH_SetPTPTimeStampAddend), (12 bytes).
    Removing stm32_eth.o(i.ETH_SetPTPTimeStampUpdate), (24 bytes).
    Removing stm32_eth.o(i.ETH_SetWakeUpFrameFilterRegister), (28 bytes).
    Removing stm32_eth.o(i.ETH_WakeUpFrameDetectionCmd), (36 bytes).
    Removing startup_stm32f10x_cl.o(HEAP), (512 bytes).
    Removing os_core.o(i.OSEventNameGet), (132 bytes).
    Removing os_core.o(i.OSEventNameSet), (144 bytes).
    Removing os_core.o(i.OSIntEnter), (36 bytes).
    Removing os_core.o(i.OSSchedLock), (64 bytes).
    Removing os_core.o(i.OSSchedUnlock), (96 bytes).
    Removing os_core.o(i.OSStatInit), (76 bytes).
    Removing os_core.o(i.OSVersion), (6 bytes).
    Removing os_cpu_c.o(i.OS_CPU_SysTickInit), (104 bytes).
    Removing os_mbox.o(i.OSMboxAccept), (44 bytes).
    Removing os_mbox.o(i.OSMboxCreate), (88 bytes).
    Removing os_mbox.o(i.OSMboxDel), (244 bytes).
    Removing os_mbox.o(i.OSMboxPend), (280 bytes).
    Removing os_mbox.o(i.OSMboxPendAbort), (144 bytes).
    Removing os_mbox.o(i.OSMboxPost), (92 bytes).
    Removing os_mbox.o(i.OSMboxPostOpt), (132 bytes).
    Removing os_mbox.o(i.OSMboxQuery), (88 bytes).
    Removing os_mem.o(i.OSMemNameGet), (92 bytes).
    Removing os_mem.o(i.OSMemNameSet), (108 bytes).
    Removing os_mem.o(i.OSMemQuery), (64 bytes).
    Removing os_q.o(i.OSQAccept), (106 bytes).
    Removing os_q.o(i.OSQDel), (284 bytes).
    Removing os_q.o(i.OSQFlush), (52 bytes).
    Removing os_q.o(i.OSQPendAbort), (144 bytes).
    Removing os_q.o(i.OSQPostFront), (122 bytes).
    Removing os_q.o(i.OSQPostOpt), (188 bytes).
    Removing os_q.o(i.OSQQuery), (112 bytes).
    Removing os_sem.o(i.OSSemAccept), (50 bytes).
    Removing os_sem.o(i.OSSemPendAbort), (144 bytes).
    Removing os_sem.o(i.OSSemQuery), (94 bytes).
    Removing os_sem.o(i.OSSemSet), (80 bytes).
    Removing os_task.o(i.OSTaskChangePrio), (364 bytes).
    Removing os_task.o(i.OSTaskDelReq), (120 bytes).
    Removing os_task.o(i.OSTaskNameGet), (160 bytes).
    Removing os_task.o(i.OSTaskResume), (184 bytes).
    Removing os_time.o(i.OSTimeDlyResume), (188 bytes).
    Removing os_time.o(i.OSTimeSet), (28 bytes).
    Removing sys_arch.o(i.sys_mbox_free), (216 bytes).
    Removing sys_arch.o(i.sys_mbox_post), (52 bytes).
    Removing tcpip.o(i.mem_free_callback), (20 bytes).
    Removing tcpip.o(i.pbuf_free_callback), (20 bytes).
    Removing tcpip.o(i.pbuf_free_int), (14 bytes).
    Removing tcpip.o(i.tcpip_callback_with_block), (96 bytes).
    Removing tcpip.o(i.tcpip_timeout), (68 bytes).
    Removing tcpip.o(i.tcpip_untimeout), (60 bytes).
    Removing mem.o(i.mem_calloc), (34 bytes).
    Removing netif.o(i.netif_find), (72 bytes).
    Removing netif.o(i.netif_remove), (84 bytes).
    Removing netif.o(i.netif_set_down), (24 bytes).
    Removing pbuf.o(i.pbuf_coalesce), (168 bytes).
    Removing pbuf.o(i.pbuf_dechain), (244 bytes).
    Removing pbuf.o(i.pbuf_take), (364 bytes).
    Removing raw.o(i.raw_bind), (16 bytes).
    Removing raw.o(i.raw_connect), (16 bytes).
    Removing raw.o(i.raw_new), (48 bytes).
    Removing raw.o(i.raw_recv), (6 bytes).
    Removing raw.o(i.raw_remove), (64 bytes).
    Removing raw.o(i.raw_send), (18 bytes).
    Removing raw.o(i.raw_sendto), (280 bytes).
    Removing sys.o(i.sswt_handler), (20 bytes).
    Removing sys.o(i.sys_msleep), (28 bytes).
    Removing sys.o(i.sys_sem_wait_timeout), (64 bytes).
    Removing tcp.o(i.tcp_accept), (4 bytes).
    Removing tcp.o(i.tcp_accept_null), (8 bytes).
    Removing tcp.o(i.tcp_arg), (4 bytes).
    Removing tcp.o(i.tcp_bind), (376 bytes).
    Removing tcp.o(i.tcp_connect), (432 bytes).
    Removing tcp.o(i.tcp_err), (6 bytes).
    Removing tcp.o(i.tcp_listen_with_backlog), (344 bytes).
    Removing tcp.o(i.tcp_new), (10 bytes).
    Removing tcp.o(i.tcp_new_port), (120 bytes).
    Removing tcp.o(i.tcp_poll), (10 bytes).
    Removing tcp.o(i.tcp_recv), (6 bytes).
    Removing tcp.o(i.tcp_recved), (204 bytes).
    Removing tcp.o(i.tcp_sent), (6 bytes).
    Removing tcp.o(i.tcp_setprio), (4 bytes).
    Removing tcp_out.o(i.tcp_write), (72 bytes).
    Removing udp.o(i.udp_bind), (228 bytes).
    Removing udp.o(i.udp_connect), (100 bytes).
    Removing udp.o(i.udp_disconnect), (32 bytes).
    Removing udp.o(i.udp_new), (28 bytes).
    Removing udp.o(i.udp_recv), (6 bytes).
    Removing udp.o(i.udp_remove), (64 bytes).
    Removing udp.o(i.udp_send), (20 bytes).
    Removing udp.o(i.udp_sendto), (46 bytes).
    Removing udp.o(i.udp_sendto_if), (344 bytes).
    Removing inet.o(i.inet_addr), (24 bytes).
    Removing inet.o(i.inet_aton), (378 bytes).
    Removing inet.o(i.inet_ntoa), (116 bytes).
    Removing inet.o(.bss), (16 bytes).
    Removing inet_chksum.o(i.inet_chksum_pseudo), (162 bytes).
    Removing ip.o(i.ip_current_header), (12 bytes).
    Removing ip.o(i.ip_current_netif), (12 bytes).
    Removing ip_addr.o(.constdata), (8 bytes).
    Removing etharp.o(i.etharp_find_addr), (84 bytes).
    Removing dadd.o(.text), (334 bytes).
    Removing dmul.o(.text), (228 bytes).
    Removing ddiv.o(.text), (222 bytes).
    Removing dfixul.o(.text), (48 bytes).
    Removing cdrcmple.o(.text), (40 bytes).
    Removing depilogue.o(.text), (190 bytes).

635 unused section(s) (total 32880 bytes) removed from the image.

==============================================================================

Image Symbol Table

    Local Symbols

    Symbol Name                              Value     Ov Type        Size  Object(Section)

    ../clib/microlib/division.c              0x00000000   Number         0  uldiv.o ABSOLUTE
    ../clib/microlib/division.c              0x00000000   Number         0  uidiv.o ABSOLUTE
    ../clib/microlib/init/entry.s            0x00000000   Number         0  entry2.o ABSOLUTE
    ../clib/microlib/init/entry.s            0x00000000   Number         0  entry5.o ABSOLUTE
    ../clib/microlib/init/entry.s            0x00000000   Number         0  entry7a.o ABSOLUTE
    ../clib/microlib/init/entry.s            0x00000000   Number         0  entry7b.o ABSOLUTE
    ../clib/microlib/init/entry.s            0x00000000   Number         0  entry8.o ABSOLUTE
    ../clib/microlib/init/entry.s            0x00000000   Number         0  entry.o ABSOLUTE
    ../clib/microlib/longlong.c              0x00000000   Number         0  llshl.o ABSOLUTE
    ../clib/microlib/longlong.c              0x00000000   Number         0  llushr.o ABSOLUTE
    ../clib/microlib/longlong.c              0x00000000   Number         0  llsshr.o ABSOLUTE
    ../clib/microlib/printf/printf.c         0x00000000   Number         0  printfa.o ABSOLUTE
    ../clib/microlib/printf/printf.c         0x00000000   Number         0  printf7.o ABSOLUTE
    ../clib/microlib/printf/printf.c         0x00000000   Number         0  printf6.o ABSOLUTE
    ../clib/microlib/printf/printf.c         0x00000000   Number         0  printf5.o ABSOLUTE
    ../clib/microlib/printf/printf.c         0x00000000   Number         0  printf4.o ABSOLUTE
    ../clib/microlib/printf/printf.c         0x00000000   Number         0  printf3.o ABSOLUTE
    ../clib/microlib/printf/printf.c         0x00000000   Number         0  printf2.o ABSOLUTE
    ../clib/microlib/printf/printf.c         0x00000000   Number         0  printf1.o ABSOLUTE
    ../clib/microlib/printf/printf.c         0x00000000   Number         0  printf0.o ABSOLUTE
    ../clib/microlib/printf/printf.c         0x00000000   Number         0  printf8.o ABSOLUTE
    ../clib/microlib/printf/printf.c         0x00000000   Number         0  printfb.o ABSOLUTE
    ../clib/microlib/printf/stubs.s          0x00000000   Number         0  stubs.o ABSOLUTE
    ../clib/microlib/stdio/streams.c         0x00000000   Number         0  stdout.o ABSOLUTE
    ../clib/microlib/string/memcpy.c         0x00000000   Number         0  memcpya.o ABSOLUTE
    ../clib/microlib/string/memcpy.c         0x00000000   Number         0  memcpyb.o ABSOLUTE
    ../clib/microlib/string/memset.c         0x00000000   Number         0  memseta.o ABSOLUTE
    ../clib/microlib/stubs.s                 0x00000000   Number         0  iusefp.o ABSOLUTE
    ../fplib/microlib/fpadd.c                0x00000000   Number         0  dadd.o ABSOLUTE
    ../fplib/microlib/fpdiv.c                0x00000000   Number         0  ddiv.o ABSOLUTE
    ../fplib/microlib/fpepilogue.c           0x00000000   Number         0  depilogue.o ABSOLUTE
    ../fplib/microlib/fpfix.c                0x00000000   Number         0  dfixul.o ABSOLUTE
    ../fplib/microlib/fpmul.c                0x00000000   Number         0  dmul.o ABSOLUTE
    ..\\src\\STM32Lib\\core_cm3.c            0x00000000   Number         0  core_cm3.o ABSOLUTE
    ..\src\App\app.c                         0x00000000   Number         0  app.o ABSOLUTE
    ..\src\BSP\BSP.c                         0x00000000   Number         0  bsp.o ABSOLUTE
    ..\src\ETHLib\src\stm32_eth.c            0x00000000   Number         0  stm32_eth.o ABSOLUTE
    ..\src\LwIP\port\LwIP.c                  0x00000000   Number         0  lwip.o ABSOLUTE
    ..\src\LwIP\port\ethernetif.c            0x00000000   Number         0  ethernetif.o ABSOLUTE
    ..\src\LwIP\port\sys_arch.c              0x00000000   Number         0  sys_arch.o ABSOLUTE
    ..\src\LwIP\src\api\api_lib.c            0x00000000   Number         0  api_lib.o ABSOLUTE
    ..\src\LwIP\src\api\api_msg.c            0x00000000   Number         0  api_msg.o ABSOLUTE
    ..\src\LwIP\src\api\err.c                0x00000000   Number         0  err.o ABSOLUTE
    ..\src\LwIP\src\api\netbuf.c             0x00000000   Number         0  netbuf.o ABSOLUTE
    ..\src\LwIP\src\api\netdb.c              0x00000000   Number         0  netdb.o ABSOLUTE
    ..\src\LwIP\src\api\netifapi.c           0x00000000   Number         0  netifapi.o ABSOLUTE
    ..\src\LwIP\src\api\sockets.c            0x00000000   Number         0  sockets.o ABSOLUTE
    ..\src\LwIP\src\api\tcpip.c              0x00000000   Number         0  tcpip.o ABSOLUTE
    ..\src\LwIP\src\core\dhcp.c              0x00000000   Number         0  dhcp.o ABSOLUTE
    ..\src\LwIP\src\core\dns.c               0x00000000   Number         0  dns.o ABSOLUTE
    ..\src\LwIP\src\core\init.c              0x00000000   Number         0  init.o ABSOLUTE
    ..\src\LwIP\src\core\ipv4\autoip.c       0x00000000   Number         0  autoip.o ABSOLUTE
    ..\src\LwIP\src\core\ipv4\icmp.c         0x00000000   Number         0  icmp.o ABSOLUTE
    ..\src\LwIP\src\core\ipv4\igmp.c         0x00000000   Number         0  igmp.o ABSOLUTE
    ..\src\LwIP\src\core\ipv4\inet.c         0x00000000   Number         0  inet.o ABSOLUTE
    ..\src\LwIP\src\core\ipv4\inet_chksum.c  0x00000000   Number         0  inet_chksum.o ABSOLUTE
    ..\src\LwIP\src\core\ipv4\ip.c           0x00000000   Number         0  ip.o ABSOLUTE
    ..\src\LwIP\src\core\ipv4\ip_addr.c      0x00000000   Number         0  ip_addr.o ABSOLUTE
    ..\src\LwIP\src\core\ipv4\ip_frag.c      0x00000000   Number         0  ip_frag.o ABSOLUTE
    ..\src\LwIP\src\core\mem.c               0x00000000   Number         0  mem.o ABSOLUTE
    ..\src\LwIP\src\core\memp.c              0x00000000   Number         0  memp.o ABSOLUTE
    ..\src\LwIP\src\core\netif.c             0x00000000   Number         0  netif.o ABSOLUTE
    ..\src\LwIP\src\core\pbuf.c              0x00000000   Number         0  pbuf.o ABSOLUTE
    ..\src\LwIP\src\core\raw.c               0x00000000   Number         0  raw.o ABSOLUTE
    ..\src\LwIP\src\core\snmp\asn1_dec.c     0x00000000   Number         0  asn1_dec.o ABSOLUTE
    ..\src\LwIP\src\core\snmp\asn1_enc.c     0x00000000   Number         0  asn1_enc.o ABSOLUTE
    ..\src\LwIP\src\core\snmp\mib2.c         0x00000000   Number         0  mib2.o ABSOLUTE
    ..\src\LwIP\src\core\snmp\mib_structs.c  0x00000000   Number         0  mib_structs.o ABSOLUTE
    ..\src\LwIP\src\core\snmp\msg_in.c       0x00000000   Number         0  msg_in.o ABSOLUTE
    ..\src\LwIP\src\core\snmp\msg_out.c      0x00000000   Number         0  msg_out.o ABSOLUTE
    ..\src\LwIP\src\core\stats.c             0x00000000   Number         0  stats.o ABSOLUTE
    ..\src\LwIP\src\core\sys.c               0x00000000   Number         0  sys.o ABSOLUTE
    ..\src\LwIP\src\core\tcp.c               0x00000000   Number         0  tcp.o ABSOLUTE
    ..\src\LwIP\src\core\tcp_in.c            0x00000000   Number         0  tcp_in.o ABSOLUTE
    ..\src\LwIP\src\core\tcp_out.c           0x00000000   Number         0  tcp_out.o ABSOLUTE
    ..\src\LwIP\src\core\udp.c               0x00000000   Number         0  udp.o ABSOLUTE
    ..\src\LwIP\src\netif\etharp.c           0x00000000   Number         0  etharp.o ABSOLUTE
    ..\src\LwIP\src\netif\loopif.c           0x00000000   Number         0  loopif.o ABSOLUTE
    ..\src\LwIP\src\netif\slipif.c           0x00000000   Number         0  slipif.o ABSOLUTE
    ..\src\STM32Lib\StartUp\startup_stm32f10x_cl.s 0x00000000   Number         0  startup_stm32f10x_cl.o ABSOLUTE
    ..\src\STM32Lib\core_cm3.c               0x00000000   Number         0  core_cm3.o ABSOLUTE
    ..\src\STM32Lib\misc.c                   0x00000000   Number         0  misc.o ABSOLUTE
    ..\src\STM32Lib\stm32f10x_adc.c          0x00000000   Number         0  stm32f10x_adc.o ABSOLUTE
    ..\src\STM32Lib\stm32f10x_bkp.c          0x00000000   Number         0  stm32f10x_bkp.o ABSOLUTE
    ..\src\STM32Lib\stm32f10x_can.c          0x00000000   Number         0  stm32f10x_can.o ABSOLUTE
    ..\src\STM32Lib\stm32f10x_crc.c          0x00000000   Number         0  stm32f10x_crc.o ABSOLUTE
    ..\src\STM32Lib\stm32f10x_dac.c          0x00000000   Number         0  stm32f10x_dac.o ABSOLUTE
    ..\src\STM32Lib\stm32f10x_dbgmcu.c       0x00000000   Number         0  stm32f10x_dbgmcu.o ABSOLUTE
    ..\src\STM32Lib\stm32f10x_dma.c          0x00000000   Number         0  stm32f10x_dma.o ABSOLUTE
    ..\src\STM32Lib\stm32f10x_exti.c         0x00000000   Number         0  stm32f10x_exti.o ABSOLUTE
    ..\src\STM32Lib\stm32f10x_flash.c        0x00000000   Number         0  stm32f10x_flash.o ABSOLUTE
    ..\src\STM32Lib\stm32f10x_fsmc.c         0x00000000   Number         0  stm32f10x_fsmc.o ABSOLUTE
    ..\src\STM32Lib\stm32f10x_gpio.c         0x00000000   Number         0  stm32f10x_gpio.o ABSOLUTE
    ..\src\STM32Lib\stm32f10x_i2c.c          0x00000000   Number         0  stm32f10x_i2c.o ABSOLUTE
    ..\src\STM32Lib\stm32f10x_iwdg.c         0x00000000   Number         0  stm32f10x_iwdg.o ABSOLUTE
    ..\src\STM32Lib\stm32f10x_pwr.c          0x00000000   Number         0  stm32f10x_pwr.o ABSOLUTE
    ..\src\STM32Lib\stm32f10x_rcc.c          0x00000000   Number         0  stm32f10x_rcc.o ABSOLUTE
    ..\src\STM32Lib\stm32f10x_rtc.c          0x00000000   Number         0  stm32f10x_rtc.o ABSOLUTE
    ..\src\STM32Lib\stm32f10x_sdio.c         0x00000000   Number         0  stm32f10x_sdio.o ABSOLUTE
    ..\src\STM32Lib\stm32f10x_spi.c          0x00000000   Number         0  stm32f10x_spi.o ABSOLUTE
    ..\src\STM32Lib\stm32f10x_tim.c          0x00000000   Number         0  stm32f10x_tim.o ABSOLUTE
    ..\src\STM32Lib\stm32f10x_usart.c        0x00000000   Number         0  stm32f10x_usart.o ABSOLUTE
    ..\src\STM32Lib\stm32f10x_wwdg.c         0x00000000   Number         0  stm32f10x_wwdg.o ABSOLUTE
    ..\src\STM32Lib\system_stm32f10x.c       0x00000000   Number         0  system_stm32f10x.o ABSOLUTE
    ..\src\UCOSII\os_core.c                  0x00000000   Number         0  os_core.o ABSOLUTE
    ..\src\UCOSII\os_cpu_a.asm               0x00000000   Number         0  os_cpu_a.o ABSOLUTE
    ..\src\UCOSII\os_cpu_c.c                 0x00000000   Number         0  os_cpu_c.o ABSOLUTE
    ..\src\UCOSII\os_dbg.c                   0x00000000   Number         0  os_dbg.o ABSOLUTE
    ..\src\UCOSII\os_flag.c                  0x00000000   Number         0  os_flag.o ABSOLUTE
    ..\src\UCOSII\os_mbox.c                  0x00000000   Number         0  os_mbox.o ABSOLUTE
    ..\src\UCOSII\os_mem.c                   0x00000000   Number         0  os_mem.o ABSOLUTE
    ..\src\UCOSII\os_mutex.c                 0x00000000   Number         0  os_mutex.o ABSOLUTE
    ..\src\UCOSII\os_q.c                     0x00000000   Number         0  os_q.o ABSOLUTE
    ..\src\UCOSII\os_sem.c                   0x00000000   Number         0  os_sem.o ABSOLUTE
    ..\src\UCOSII\os_task.c                  0x00000000   Number         0  os_task.o ABSOLUTE
    ..\src\UCOSII\os_time.c                  0x00000000   Number         0  os_time.o ABSOLUTE
    ..\src\UCOSII\os_tmr.c                   0x00000000   Number         0  os_tmr.o ABSOLUTE
    ..\src\main.c                            0x00000000   Number         0  main.o ABSOLUTE
    ..\src\stm32f10x_it.c                    0x00000000   Number         0  stm32f10x_it.o ABSOLUTE
    cdrcmple.s                               0x00000000   Number         0  cdrcmple.o ABSOLUTE
    dc.s                                     0x00000000   Number         0  dc.o ABSOLUTE
    handlers.s                               0x00000000   Number         0  handlers.o ABSOLUTE
    init.s                                   0x00000000   Number         0  init.o ABSOLUTE
    RESET                                    0x08000000   Section      336  startup_stm32f10x_cl.o(RESET)
    .ARM.Collect$$$$00000000                 0x08000150   Section        0  entry.o(.ARM.Collect$$$$00000000)
    .ARM.Collect$$$$00000001                 0x08000150   Section        4  entry2.o(.ARM.Collect$$$$00000001)
    .ARM.Collect$$$$00000004                 0x08000154   Section        4  entry5.o(.ARM.Collect$$$$00000004)
    .ARM.Collect$$$$00000008                 0x08000158   Section        0  entry7b.o(.ARM.Collect$$$$00000008)
    .ARM.Collect$$$$00000009                 0x08000158   Section        8  entry8.o(.ARM.Collect$$$$00000009)
    .ARM.Collect$$$$00002712                 0x08000160   Section        4  entry2.o(.ARM.Collect$$$$00002712)
    __lit__00000000                          0x08000160   Data           4  entry2.o(.ARM.Collect$$$$00002712)
    .text                                    0x08000164   Section       36  startup_stm32f10x_cl.o(.text)
    .text                                    0x08000188   Section      164  os_cpu_a.o(.text)
    .text                                    0x0800022c   Section        0  memcpya.o(.text)
    .text                                    0x08000250   Section        0  memseta.o(.text)
    .text                                    0x08000274   Section        0  uidiv.o(.text)
    .text                                    0x080002a0   Section       36  init.o(.text)
    i.ADC1_2_IRQHandler                      0x080002c4   Section        0  stm32f10x_it.o(i.ADC1_2_IRQHandler)
    i.App_TaskCreate                         0x080002c8   Section        0  app.o(i.App_TaskCreate)
    i.App_TaskStart                          0x08000310   Section        0  main.o(i.App_TaskStart)
    App_TaskStart                            0x08000311   Thumb Code    34  main.o(i.App_TaskStart)
    i.App_TaskToggleLED                      0x08000358   Section        0  app.o(i.App_TaskToggleLED)
    App_TaskToggleLED                        0x08000359   Thumb Code    20  app.o(i.App_TaskToggleLED)
    i.App_TaskToggleLED1                     0x0800036c   Section        0  app.o(i.App_TaskToggleLED1)
    App_TaskToggleLED1                       0x0800036d   Thumb Code    22  app.o(i.App_TaskToggleLED1)
    i.BSP_EthernetInit                       0x08000384   Section        0  bsp.o(i.BSP_EthernetInit)
    BSP_EthernetInit                         0x08000385   Thumb Code   272  bsp.o(i.BSP_EthernetInit)
    i.BSP_Init                               0x080004a4   Section        0  bsp.o(i.BSP_Init)
    i.BSP_Led1Toggle                         0x080004bc   Section        0  bsp.o(i.BSP_Led1Toggle)
    i.BSP_LedInit                            0x080004cc   Section        0  bsp.o(i.BSP_LedInit)
    BSP_LedInit                              0x080004cd   Thumb Code    46  bsp.o(i.BSP_LedInit)
    i.BSP_LedToggle                          0x08000500   Section        0  bsp.o(i.BSP_LedToggle)
    i.BSP_NVICConfiguration                  0x08000510   Section        0  bsp.o(i.BSP_NVICConfiguration)
    i.BSP_UsartInit                          0x08000544   Section        0  bsp.o(i.BSP_UsartInit)
    BSP_UsartInit                            0x08000545   Thumb Code   146  bsp.o(i.BSP_UsartInit)
    i.BusFault_Handler                       0x080005e0   Section        0  stm32f10x_it.o(i.BusFault_Handler)
    i.CAN1_RX1_IRQHandler                    0x080005e4   Section        0  stm32f10x_it.o(i.CAN1_RX1_IRQHandler)
    i.CAN1_SCE_IRQHandler                    0x080005e6   Section        0  stm32f10x_it.o(i.CAN1_SCE_IRQHandler)
    i.DMA1_Channel1_IRQHandler               0x080005e8   Section        0  stm32f10x_it.o(i.DMA1_Channel1_IRQHandler)
    i.DMA1_Channel2_IRQHandler               0x080005ea   Section        0  stm32f10x_it.o(i.DMA1_Channel2_IRQHandler)
    i.DMA1_Channel3_IRQHandler               0x080005ec   Section        0  stm32f10x_it.o(i.DMA1_Channel3_IRQHandler)
    i.DMA1_Channel4_IRQHandler               0x080005ee   Section        0  stm32f10x_it.o(i.DMA1_Channel4_IRQHandler)
    i.DMA1_Channel5_IRQHandler               0x080005f0   Section        0  stm32f10x_it.o(i.DMA1_Channel5_IRQHandler)
    i.DMA1_Channel6_IRQHandler               0x080005f2   Section        0  stm32f10x_it.o(i.DMA1_Channel6_IRQHandler)
    i.DMA1_Channel7_IRQHandler               0x080005f4   Section        0  stm32f10x_it.o(i.DMA1_Channel7_IRQHandler)
    i.DebugMon_Handler                       0x080005f6   Section        0  stm32f10x_it.o(i.DebugMon_Handler)
    i.ETH_DMAClearITPendingBit               0x080005f8   Section        0  stm32_eth.o(i.ETH_DMAClearITPendingBit)
    i.ETH_DMAITConfig                        0x08000604   Section        0  stm32_eth.o(i.ETH_DMAITConfig)
    i.ETH_DMAReceptionCmd                    0x08000624   Section        0  stm32_eth.o(i.ETH_DMAReceptionCmd)
    i.ETH_DMARxDescChainInit                 0x08000648   Section        0  stm32_eth.o(i.ETH_DMARxDescChainInit)
    i.ETH_DMARxDescReceiveITConfig           0x0800069c   Section        0  stm32_eth.o(i.ETH_DMARxDescReceiveITConfig)
    i.ETH_DMATransmissionCmd                 0x080006b4   Section        0  stm32_eth.o(i.ETH_DMATransmissionCmd)
    i.ETH_DMATxDescChainInit                 0x080006d8   Section        0  stm32_eth.o(i.ETH_DMATxDescChainInit)
    i.ETH_DMATxDescChecksumInsertionConfig   0x08000728   Section        0  stm32_eth.o(i.ETH_DMATxDescChecksumInsertionConfig)
    i.ETH_DeInit                             0x08000730   Section        0  stm32_eth.o(i.ETH_DeInit)
    i.ETH_Delay                              0x08000746   Section        0  stm32_eth.o(i.ETH_Delay)
    ETH_Delay                                0x08000747   Thumb Code    14  stm32_eth.o(i.ETH_Delay)
    i.ETH_FlushTransmitFIFO                  0x08000754   Section        0  stm32_eth.o(i.ETH_FlushTransmitFIFO)
    i.ETH_GetCurrentTxBuffer                 0x08000768   Section        0  ethernetif.o(i.ETH_GetCurrentTxBuffer)
    i.ETH_GetDMARxDescFrameLength            0x08000774   Section        0  stm32_eth.o(i.ETH_GetDMARxDescFrameLength)
    i.ETH_GetRxPktSize                       0x08000780   Section        0  stm32_eth.o(i.ETH_GetRxPktSize)
    i.ETH_GetSoftwareResetStatus             0x080007c8   Section        0  stm32_eth.o(i.ETH_GetSoftwareResetStatus)
    i.ETH_IRQHandler                         0x080007e0   Section        0  stm32f10x_it.o(i.ETH_IRQHandler)
    i.ETH_Init                               0x08000800   Section        0  stm32_eth.o(i.ETH_Init)
    i.ETH_MACAddressConfig                   0x08000a50   Section        0  stm32_eth.o(i.ETH_MACAddressConfig)
    i.ETH_MACReceptionCmd                    0x08000a84   Section        0  stm32_eth.o(i.ETH_MACReceptionCmd)
    i.ETH_MACTransmissionCmd                 0x08000aa8   Section        0  stm32_eth.o(i.ETH_MACTransmissionCmd)
    i.ETH_ReadPHYRegister                    0x08000acc   Section        0  stm32_eth.o(i.ETH_ReadPHYRegister)
    i.ETH_RxPkt_ChainMode                    0x08000b2c   Section        0  ethernetif.o(i.ETH_RxPkt_ChainMode)
    i.ETH_SoftwareReset                      0x08000bc8   Section        0  stm32_eth.o(i.ETH_SoftwareReset)
    i.ETH_Start                              0x08000bdc   Section        0  stm32_eth.o(i.ETH_Start)
    i.ETH_StructInit                         0x08000bfc   Section        0  stm32_eth.o(i.ETH_StructInit)
    i.ETH_TxPkt_ChainMode                    0x08000ca0   Section        0  ethernetif.o(i.ETH_TxPkt_ChainMode)
    i.ETH_WritePHYRegister                   0x08000d08   Section        0  stm32_eth.o(i.ETH_WritePHYRegister)
    i.EXTI0_IRQHandler                       0x08000d68   Section        0  stm32f10x_it.o(i.EXTI0_IRQHandler)
    i.EXTI15_10_IRQHandler                   0x08000d6a   Section        0  stm32f10x_it.o(i.EXTI15_10_IRQHandler)
    i.EXTI1_IRQHandler                       0x08000d6c   Section        0  stm32f10x_it.o(i.EXTI1_IRQHandler)
    i.EXTI2_IRQHandler                       0x08000d6e   Section        0  stm32f10x_it.o(i.EXTI2_IRQHandler)
    i.EXTI3_IRQHandler                       0x08000d70   Section        0  stm32f10x_it.o(i.EXTI3_IRQHandler)
    i.EXTI4_IRQHandler                       0x08000d72   Section        0  stm32f10x_it.o(i.EXTI4_IRQHandler)
    i.EXTI9_5_IRQHandler                     0x08000d74   Section        0  stm32f10x_it.o(i.EXTI9_5_IRQHandler)
    i.Ethernet_Configuration                 0x08000d78   Section        0  bsp.o(i.Ethernet_Configuration)
    Ethernet_Configuration                   0x08000d79   Thumb Code   156  bsp.o(i.Ethernet_Configuration)
    i.FLASH_IRQHandler                       0x08000e18   Section        0  stm32f10x_it.o(i.FLASH_IRQHandler)
    i.GPIO_ETH_MediaInterfaceConfig          0x08000e1c   Section        0  stm32f10x_gpio.o(i.GPIO_ETH_MediaInterfaceConfig)
    i.GPIO_Init                              0x08000e28   Section        0  stm32f10x_gpio.o(i.GPIO_Init)
    i.GPIO_PinRemapConfig                    0x08000f3c   Section        0  stm32f10x_gpio.o(i.GPIO_PinRemapConfig)
    i.GPIO_SetBits                           0x08000fcc   Section        0  stm32f10x_gpio.o(i.GPIO_SetBits)
    i.HardFault_Handler                      0x08000fd0   Section        0  stm32f10x_it.o(i.HardFault_Handler)
    i.I2C1_ER_IRQHandler                     0x08000fd4   Section        0  stm32f10x_it.o(i.I2C1_ER_IRQHandler)
    i.I2C1_EV_IRQHandler                     0x08000fd6   Section        0  stm32f10x_it.o(i.I2C1_EV_IRQHandler)
    i.I2C2_ER_IRQHandler                     0x08000fd8   Section        0  stm32f10x_it.o(i.I2C2_ER_IRQHandler)
    i.I2C2_EV_IRQHandler                     0x08000fda   Section        0  stm32f10x_it.o(i.I2C2_EV_IRQHandler)
    i.Init_LwIP                              0x08000fdc   Section        0  lwip.o(i.Init_LwIP)
    i.LwIP_Pkt_Handle                        0x080010b8   Section        0  lwip.o(i.LwIP_Pkt_Handle)
    i.MemManage_Handler                      0x080010c8   Section        0  stm32f10x_it.o(i.MemManage_Handler)
    i.NMI_Handler                            0x080010cc   Section        0  stm32f10x_it.o(i.NMI_Handler)
    i.NVIC_Init                              0x080010d0   Section        0  misc.o(i.NVIC_Init)
    i.NVIC_PriorityGroupConfig               0x08001144   Section        0  misc.o(i.NVIC_PriorityGroupConfig)
    i.NVIC_SetVectorTable                    0x08001158   Section        0  misc.o(i.NVIC_SetVectorTable)
    i.OSDebugInit                            0x0800116c   Section        0  os_dbg.o(i.OSDebugInit)
    i.OSInit                                 0x08001280   Section        0  os_core.o(i.OSInit)
    i.OSInitHookBegin                        0x080012b0   Section        0  os_cpu_c.o(i.OSInitHookBegin)
    i.OSInitHookEnd                          0x080012b2   Section        0  os_cpu_c.o(i.OSInitHookEnd)
    i.OSIntExit                              0x080012b4   Section        0  os_core.o(i.OSIntExit)
    i.OSMemCreate                            0x08001344   Section        0  os_mem.o(i.OSMemCreate)
    i.OSMemGet                               0x080013f0   Section        0  os_mem.o(i.OSMemGet)
    i.OSMemPut                               0x0800143e   Section        0  os_mem.o(i.OSMemPut)
    i.OSQCreate                              0x08001480   Section        0  os_q.o(i.OSQCreate)
    i.OSQPend                                0x08001524   Section        0  os_q.o(i.OSQPend)
    i.OSQPost                                0x08001658   Section        0  os_q.o(i.OSQPost)
    i.OSSemCreate                            0x080016d0   Section        0  os_sem.o(i.OSSemCreate)
    i.OSSemDel                               0x08001728   Section        0  os_sem.o(i.OSSemDel)
    i.OSSemPend                              0x0800181c   Section        0  os_sem.o(i.OSSemPend)
    i.OSSemPost                              0x08001918   Section        0  os_sem.o(i.OSSemPost)
    i.OSStart                                0x08001978   Section        0  os_core.o(i.OSStart)
    i.OSTCBInitHook                          0x080019c0   Section        0  os_cpu_c.o(i.OSTCBInitHook)
    i.OSTaskCreate                           0x080019c4   Section        0  os_task.o(i.OSTaskCreate)
    i.OSTaskCreateExt                        0x08001a70   Section        0  os_task.o(i.OSTaskCreateExt)
    i.OSTaskCreateHook                       0x08001b30   Section        0  os_cpu_c.o(i.OSTaskCreateHook)
    i.OSTaskDel                              0x08001b34   Section        0  os_task.o(i.OSTaskDel)
    i.OSTaskDelHook                          0x08001c8c   Section        0  os_cpu_c.o(i.OSTaskDelHook)
    i.OSTaskIdleHook                         0x08001c8e   Section        0  os_cpu_c.o(i.OSTaskIdleHook)
    i.OSTaskNameSet                          0x08001c90   Section        0  os_task.o(i.OSTaskNameSet)
    i.OSTaskQuery                            0x08001d3c   Section        0  os_task.o(i.OSTaskQuery)
    i.OSTaskStatHook                         0x08001da8   Section        0  os_cpu_c.o(i.OSTaskStatHook)
    i.OSTaskStkChk                           0x08001dac   Section        0  os_task.o(i.OSTaskStkChk)
    i.OSTaskStkInit                          0x08001e4c   Section        0  os_cpu_c.o(i.OSTaskStkInit)
    i.OSTaskSuspend                          0x08001ee8   Section        0  os_task.o(i.OSTaskSuspend)
    i.OSTaskSwHook                           0x08001fa4   Section        0  os_cpu_c.o(i.OSTaskSwHook)
    i.OSTimeDly                              0x08001fa8   Section        0  os_time.o(i.OSTimeDly)
    i.OSTimeDlyHMSM                          0x08002018   Section        0  os_time.o(i.OSTimeDlyHMSM)
    i.OSTimeGet                              0x080020bc   Section        0  os_time.o(i.OSTimeGet)
    i.OSTimeTick                             0x080020d8   Section        0  os_core.o(i.OSTimeTick)
    i.OSTimeTickHook                         0x080021cc   Section        0  os_cpu_c.o(i.OSTimeTickHook)
    i.OS_Dummy                               0x080021ce   Section        0  os_core.o(i.OS_Dummy)
    i.OS_EventTaskRdy                        0x080021d0   Section        0  os_core.o(i.OS_EventTaskRdy)
    i.OS_EventTaskRemove                     0x08002258   Section        0  os_core.o(i.OS_EventTaskRemove)
    i.OS_EventTaskWait                       0x08002284   Section        0  os_core.o(i.OS_EventTaskWait)
    i.OS_EventWaitListInit                   0x08002300   Section        0  os_core.o(i.OS_EventWaitListInit)
    i.OS_InitEventList                       0x0800231c   Section        0  os_core.o(i.OS_InitEventList)
    OS_InitEventList                         0x0800231d   Thumb Code    70  os_core.o(i.OS_InitEventList)
    i.OS_InitMisc                            0x0800236c   Section        0  os_core.o(i.OS_InitMisc)
    OS_InitMisc                              0x0800236d   Thumb Code    44  os_core.o(i.OS_InitMisc)
    i.OS_InitRdyList                         0x080023c0   Section        0  os_core.o(i.OS_InitRdyList)
    OS_InitRdyList                           0x080023c1   Thumb Code    46  os_core.o(i.OS_InitRdyList)
    i.OS_InitTCBList                         0x08002408   Section        0  os_core.o(i.OS_InitTCBList)
    OS_InitTCBList                           0x08002409   Thumb Code    86  os_core.o(i.OS_InitTCBList)
    i.OS_InitTaskIdle                        0x08002470   Section        0  os_core.o(i.OS_InitTaskIdle)
    OS_InitTaskIdle                          0x08002471   Thumb Code    50  os_core.o(i.OS_InitTaskIdle)
    i.OS_InitTaskStat                        0x080024c0   Section        0  os_core.o(i.OS_InitTaskStat)
    OS_InitTaskStat                          0x080024c1   Thumb Code    50  os_core.o(i.OS_InitTaskStat)
    i.OS_MemClr                              0x08002510   Section        0  os_core.o(i.OS_MemClr)
    i.OS_MemCopy                             0x08002522   Section        0  os_core.o(i.OS_MemCopy)
    i.OS_MemInit                             0x08002538   Section        0  os_mem.o(i.OS_MemInit)
    i.OS_QInit                               0x08002584   Section        0  os_q.o(i.OS_QInit)
    i.OS_Sched                               0x080025bc   Section        0  os_core.o(i.OS_Sched)
    i.OS_SchedNew                            0x08002630   Section        0  os_core.o(i.OS_SchedNew)
    OS_SchedNew                              0x08002631   Thumb Code    26  os_core.o(i.OS_SchedNew)
    i.OS_StrCopy                             0x0800265c   Section        0  os_core.o(i.OS_StrCopy)
    i.OS_StrLen                              0x08002678   Section        0  os_core.o(i.OS_StrLen)
    i.OS_TCBInit                             0x0800268c   Section        0  os_core.o(i.OS_TCBInit)
    i.OS_TaskIdle                            0x080027b8   Section        0  os_core.o(i.OS_TaskIdle)
    i.OS_TaskStat                            0x080027dc   Section        0  os_core.o(i.OS_TaskStat)
    i.OS_TaskStatStkChk                      0x08002864   Section        0  os_core.o(i.OS_TaskStatStkChk)
    i.OS_TaskStkClr                          0x080028a0   Section        0  os_task.o(i.OS_TaskStkClr)
    i.PVD_IRQHandler                         0x080028ba   Section        0  stm32f10x_it.o(i.PVD_IRQHandler)
    i.RCC_AHBPeriphClockCmd                  0x080028bc   Section        0  stm32f10x_rcc.o(i.RCC_AHBPeriphClockCmd)
    i.RCC_AHBPeriphResetCmd                  0x080028dc   Section        0  stm32f10x_rcc.o(i.RCC_AHBPeriphResetCmd)
    i.RCC_APB2PeriphClockCmd                 0x080028fc   Section        0  stm32f10x_rcc.o(i.RCC_APB2PeriphClockCmd)
    i.RCC_GetClocksFreq                      0x0800291c   Section        0  stm32f10x_rcc.o(i.RCC_GetClocksFreq)
    i.RCC_GetFlagStatus                      0x08002aac   Section        0  stm32f10x_rcc.o(i.RCC_GetFlagStatus)
    i.RCC_IRQHandler                         0x08002ae8   Section        0  stm32f10x_it.o(i.RCC_IRQHandler)
    i.RCC_MCOConfig                          0x08002aec   Section        0  stm32f10x_rcc.o(i.RCC_MCOConfig)
    i.RCC_PLL3Cmd                            0x08002af8   Section        0  stm32f10x_rcc.o(i.RCC_PLL3Cmd)
    i.RCC_PLL3Config                         0x08002b04   Section        0  stm32f10x_rcc.o(i.RCC_PLL3Config)
    i.RTCAlarm_IRQHandler                    0x08002b1c   Section        0  stm32f10x_it.o(i.RTCAlarm_IRQHandler)
    i.RTC_IRQHandler                         0x08002b1e   Section        0  stm32f10x_it.o(i.RTC_IRQHandler)
    i.SPI1_IRQHandler                        0x08002b20   Section        0  stm32f10x_it.o(i.SPI1_IRQHandler)
    i.SPI2_IRQHandler                        0x08002b22   Section        0  stm32f10x_it.o(i.SPI2_IRQHandler)
    i.SVC_Handler                            0x08002b24   Section        0  stm32f10x_it.o(i.SVC_Handler)
    i.SetSysClock                            0x08002b26   Section        0  system_stm32f10x.o(i.SetSysClock)
    SetSysClock                              0x08002b27   Thumb Code     8  system_stm32f10x.o(i.SetSysClock)
    i.SetSysClockTo72                        0x08002b30   Section        0  system_stm32f10x.o(i.SetSysClockTo72)
    SetSysClockTo72                          0x08002b31   Thumb Code   240  system_stm32f10x.o(i.SetSysClockTo72)
    i.Set_MAC_Address                        0x08002c30   Section        0  ethernetif.o(i.Set_MAC_Address)
    i.SysTick_Handler                        0x08002c5c   Section        0  stm32f10x_it.o(i.SysTick_Handler)
    i.SysTick_Init                           0x08002c84   Section        0  bsp.o(i.SysTick_Init)
    i.SystemInit                             0x08002ce4   Section        0  system_stm32f10x.o(i.SystemInit)
    i.TAMPER_IRQHandler                      0x08002d50   Section        0  stm32f10x_it.o(i.TAMPER_IRQHandler)
    i.TIM1_BRK_IRQHandler                    0x08002d52   Section        0  stm32f10x_it.o(i.TIM1_BRK_IRQHandler)
    i.TIM1_CC_IRQHandler                     0x08002d54   Section        0  stm32f10x_it.o(i.TIM1_CC_IRQHandler)
    i.TIM1_TRG_COM_IRQHandler                0x08002d56   Section        0  stm32f10x_it.o(i.TIM1_TRG_COM_IRQHandler)
    i.TIM1_UP_IRQHandler                     0x08002d58   Section        0  stm32f10x_it.o(i.TIM1_UP_IRQHandler)
    i.TIM2_IRQHandler                        0x08002d5a   Section        0  stm32f10x_it.o(i.TIM2_IRQHandler)
    i.TIM3_IRQHandler                        0x08002d5c   Section        0  stm32f10x_it.o(i.TIM3_IRQHandler)
    i.TIM4_IRQHandler                        0x08002d5e   Section        0  stm32f10x_it.o(i.TIM4_IRQHandler)
    i.TcpipInitDone                          0x08002d60   Section        0  lwip.o(i.TcpipInitDone)
    TcpipInitDone                            0x08002d61   Thumb Code    14  lwip.o(i.TcpipInitDone)
    i.USART1_IRQHandler                      0x08002d6e   Section        0  stm32f10x_it.o(i.USART1_IRQHandler)
    i.USART2_IRQHandler                      0x08002d70   Section        0  stm32f10x_it.o(i.USART2_IRQHandler)
    i.USART3_IRQHandler                      0x08002d72   Section        0  stm32f10x_it.o(i.USART3_IRQHandler)
    i.USART_ClockInit                        0x08002d74   Section        0  stm32f10x_usart.o(i.USART_ClockInit)
    i.USART_Cmd                              0x08002d96   Section        0  stm32f10x_usart.o(i.USART_Cmd)
    i.USART_Init                             0x08002db0   Section        0  stm32f10x_usart.o(i.USART_Init)
    i.USART_SendData                         0x08002e88   Section        0  stm32f10x_usart.o(i.USART_SendData)
    i.UsageFault_Handler                     0x08002e90   Section        0  stm32f10x_it.o(i.UsageFault_Handler)
    i.WWDG_IRQHandler                        0x08002e94   Section        0  stm32f10x_it.o(i.WWDG_IRQHandler)
    i.__0printf$3                            0x08002e98   Section        0  printf3.o(i.__0printf$3)
    i.__scatterload_copy                     0x08002eb8   Section       14  handlers.o(i.__scatterload_copy)
    i.__scatterload_null                     0x08002ec6   Section        2  handlers.o(i.__scatterload_null)
    i.__scatterload_zeroinit                 0x08002ec8   Section       14  handlers.o(i.__scatterload_zeroinit)
    i._printf_core                           0x08002ed8   Section        0  printf3.o(i._printf_core)
    _printf_core                             0x08002ed9   Thumb Code   436  printf3.o(i._printf_core)
    i.arp_timer                              0x08003090   Section        0  tcpip.o(i.arp_timer)
    arp_timer                                0x08003091   Thumb Code    22  tcpip.o(i.arp_timer)
    i.etharp_arp_input                       0x080030ac   Section        0  etharp.o(i.etharp_arp_input)
    i.etharp_ip_input                        0x08003258   Section        0  etharp.o(i.etharp_ip_input)
    i.etharp_output                          0x080032f8   Section        0  etharp.o(i.etharp_output)
    i.etharp_query                           0x080033c4   Section        0  etharp.o(i.etharp_query)
    i.etharp_raw                             0x08003624   Section        0  etharp.o(i.etharp_raw)
    etharp_raw                               0x08003625   Thumb Code   230  etharp.o(i.etharp_raw)
    i.etharp_request                         0x0800378c   Section        0  etharp.o(i.etharp_request)
    i.etharp_send_ip                         0x080037b8   Section        0  etharp.o(i.etharp_send_ip)
    etharp_send_ip                           0x080037b9   Thumb Code    92  etharp.o(i.etharp_send_ip)
    i.etharp_tmr                             0x08003860   Section        0  etharp.o(i.etharp_tmr)
    i.ethernet_input                         0x08003900   Section        0  etharp.o(i.ethernet_input)
    i.ethernetif_init                        0x080039e8   Section        0  ethernetif.o(i.ethernetif_init)
    i.ethernetif_input                       0x08003a9c   Section        0  ethernetif.o(i.ethernetif_input)
    i.find_entry                             0x08003ac8   Section        0  etharp.o(i.find_entry)
    find_entry                               0x08003ac9   Thumb Code   534  etharp.o(i.find_entry)
    i.fputc                                  0x08003d5c   Section        0  bsp.o(i.fputc)
    i.free_etharp_q                          0x08003d80   Section        0  etharp.o(i.free_etharp_q)
    free_etharp_q                            0x08003d81   Thumb Code   100  etharp.o(i.free_etharp_q)
    i.htonl                                  0x08003e58   Section        0  inet.o(i.htonl)
    i.htons                                  0x08003e72   Section        0  inet.o(i.htons)
    i.icmp_dest_unreach                      0x08003e7e   Section        0  icmp.o(i.icmp_dest_unreach)
    i.icmp_input                             0x08003e90   Section        0  icmp.o(i.icmp_input)
    i.icmp_send_response                     0x080041a8   Section        0  icmp.o(i.icmp_send_response)
    icmp_send_response                       0x080041a9   Thumb Code   132  icmp.o(i.icmp_send_response)
    i.icmp_time_exceeded                     0x080042a4   Section        0  icmp.o(i.icmp_time_exceeded)
    i.inet_chksum                            0x080042b6   Section        0  inet_chksum.o(i.inet_chksum)
    i.inet_chksum_pbuf                       0x080042ca   Section        0  inet_chksum.o(i.inet_chksum_pbuf)
    i.ip_addr_isbroadcast                    0x08004320   Section        0  ip_addr.o(i.ip_addr_isbroadcast)
    i.ip_frag                                0x08004370   Section        0  ip_frag.o(i.ip_frag)
    i.ip_input                               0x080044bc   Section        0  ip.o(i.ip_input)
    i.ip_output                              0x08004658   Section        0  ip.o(i.ip_output)
    i.ip_output_if                           0x0800468c   Section        0  ip.o(i.ip_output_if)
    i.ip_reass                               0x08004814   Section        0  ip_frag.o(i.ip_reass)
    i.ip_reass_chain_frag_into_datagram_and_validate 0x080049ac   Section        0  ip_frag.o(i.ip_reass_chain_frag_into_datagram_and_validate)
    ip_reass_chain_frag_into_datagram_and_validate 0x080049ad   Thumb Code   506  ip_frag.o(i.ip_reass_chain_frag_into_datagram_and_validate)
    i.ip_reass_dequeue_datagram              0x08004cb4   Section        0  ip_frag.o(i.ip_reass_dequeue_datagram)
    ip_reass_dequeue_datagram                0x08004cb5   Thumb Code    60  ip_frag.o(i.ip_reass_dequeue_datagram)
    i.ip_reass_enqueue_new_datagram          0x08004d5c   Section        0  ip_frag.o(i.ip_reass_enqueue_new_datagram)
    ip_reass_enqueue_new_datagram            0x08004d5d   Thumb Code    80  ip_frag.o(i.ip_reass_enqueue_new_datagram)
    i.ip_reass_free_complete_datagram        0x08004db0   Section        0  ip_frag.o(i.ip_reass_free_complete_datagram)
    ip_reass_free_complete_datagram          0x08004db1   Thumb Code   204  ip_frag.o(i.ip_reass_free_complete_datagram)
    i.ip_reass_remove_oldest_datagram        0x08004f08   Section        0  ip_frag.o(i.ip_reass_remove_oldest_datagram)
    ip_reass_remove_oldest_datagram          0x08004f09   Thumb Code   118  ip_frag.o(i.ip_reass_remove_oldest_datagram)
    i.ip_reass_timer                         0x08004f84   Section        0  tcpip.o(i.ip_reass_timer)
    ip_reass_timer                           0x08004f85   Thumb Code    22  tcpip.o(i.ip_reass_timer)
    i.ip_reass_tmr                           0x08004fa0   Section        0  ip_frag.o(i.ip_reass_tmr)
    i.ip_route                               0x08004fd4   Section        0  ip.o(i.ip_route)
    i.low_level_init                         0x08005024   Section        0  ethernetif.o(i.low_level_init)
    low_level_init                           0x08005025   Thumb Code   142  ethernetif.o(i.low_level_init)
    i.low_level_input                        0x080050c8   Section        0  ethernetif.o(i.low_level_input)
    low_level_input                          0x080050c9   Thumb Code   110  ethernetif.o(i.low_level_input)
    i.low_level_output                       0x0800513c   Section        0  ethernetif.o(i.low_level_output)
    low_level_output                         0x0800513d   Thumb Code    52  ethernetif.o(i.low_level_output)
    i.lwip_init                              0x08005170   Section        0  init.o(i.lwip_init)
    i.lwip_standard_chksum                   0x08005180   Section        0  inet_chksum.o(i.lwip_standard_chksum)
    lwip_standard_chksum                     0x08005181   Thumb Code    74  inet_chksum.o(i.lwip_standard_chksum)
    i.main                                   0x080051cc   Section        0  main.o(i.main)
    i.mem_free                               0x08005208   Section        0  mem.o(i.mem_free)
    i.mem_init                               0x08005354   Section        0  mem.o(i.mem_init)
    i.mem_malloc                             0x080053c0   Section        0  mem.o(i.mem_malloc)
    i.mem_realloc                            0x0800563c   Section        0  mem.o(i.mem_realloc)
    i.memp_free                              0x08005818   Section        0  memp.o(i.memp_free)
    i.memp_init                              0x080058bc   Section        0  memp.o(i.memp_init)
    i.memp_malloc                            0x08005920   Section        0  memp.o(i.memp_malloc)
    i.netif_add                              0x08005a04   Section        0  netif.o(i.netif_add)
    i.netif_is_up                            0x08005a6c   Section        0  netif.o(i.netif_is_up)
    i.netif_set_addr                         0x08005a78   Section        0  netif.o(i.netif_set_addr)
    i.netif_set_default                      0x08005aa0   Section        0  netif.o(i.netif_set_default)
    i.netif_set_gw                           0x08005aac   Section        0  netif.o(i.netif_set_gw)
    i.netif_set_ipaddr                       0x08005ab8   Section        0  netif.o(i.netif_set_ipaddr)
    i.netif_set_netmask                      0x08005b30   Section        0  netif.o(i.netif_set_netmask)
    i.netif_set_up                           0x08005b3c   Section        0  netif.o(i.netif_set_up)
    i.ntohl                                  0x08005b68   Section        0  inet.o(i.ntohl)
    i.ntohs                                  0x08005b74   Section        0  inet.o(i.ntohs)
    i.pbuf_alloc                             0x08005b80   Section        0  pbuf.o(i.pbuf_alloc)
    i.pbuf_cat                               0x08005f94   Section        0  pbuf.o(i.pbuf_cat)
    i.pbuf_chain                             0x080060d0   Section        0  pbuf.o(i.pbuf_chain)
    i.pbuf_clen                              0x080060e6   Section        0  pbuf.o(i.pbuf_clen)
    i.pbuf_copy                              0x080060f8   Section        0  pbuf.o(i.pbuf_copy)
    i.pbuf_copy_partial                      0x08006310   Section        0  pbuf.o(i.pbuf_copy_partial)
    i.pbuf_free                              0x08006450   Section        0  pbuf.o(i.pbuf_free)
    i.pbuf_header                            0x08006594   Section        0  pbuf.o(i.pbuf_header)
    i.pbuf_realloc                           0x080066d4   Section        0  pbuf.o(i.pbuf_realloc)
    i.pbuf_ref                               0x0800688c   Section        0  pbuf.o(i.pbuf_ref)
    i.plug_holes                             0x08006898   Section        0  mem.o(i.plug_holes)
    plug_holes                               0x08006899   Thumb Code   218  mem.o(i.plug_holes)
    i.raw_input                              0x08006a40   Section        0  raw.o(i.raw_input)
    i.sys_arch_mbox_fetch                    0x08006aa8   Section        0  sys_arch.o(i.sys_arch_mbox_fetch)
    i.sys_arch_sem_wait                      0x08006ba4   Section        0  sys_arch.o(i.sys_arch_sem_wait)
    i.sys_arch_timeouts                      0x08006c14   Section        0  sys_arch.o(i.sys_arch_timeouts)
    i.sys_init                               0x08006c50   Section        0  sys_arch.o(i.sys_init)
    i.sys_mbox_fetch                         0x08006cf8   Section        0  sys.o(i.sys_mbox_fetch)
    i.sys_mbox_new                           0x08006d74   Section        0  sys_arch.o(i.sys_mbox_new)
    i.sys_mbox_trypost                       0x08006e4c   Section        0  sys_arch.o(i.sys_mbox_trypost)
    i.sys_sem_free                           0x08006e70   Section        0  sys_arch.o(i.sys_sem_free)
    i.sys_sem_new                            0x08006eec   Section        0  sys_arch.o(i.sys_sem_new)
    i.sys_sem_signal                         0x08006f68   Section        0  sys_arch.o(i.sys_sem_signal)
    i.sys_sem_wait                           0x08006f76   Section        0  sys.o(i.sys_sem_wait)
    i.sys_thread_new                         0x08006fec   Section        0  sys_arch.o(i.sys_thread_new)
    i.sys_timeout                            0x0800706c   Section        0  sys.o(i.sys_timeout)
    i.sys_untimeout                          0x080071b0   Section        0  sys.o(i.sys_untimeout)
    i.tcp_abandon                            0x0800728c   Section        0  tcp.o(i.tcp_abandon)
    i.tcp_alloc                              0x08007328   Section        0  tcp.o(i.tcp_alloc)
    i.tcp_close                              0x080073f0   Section        0  tcp.o(i.tcp_close)
    i.tcp_eff_send_mss                       0x080074f4   Section        0  tcp.o(i.tcp_eff_send_mss)
    i.tcp_enqueue                            0x08007524   Section        0  tcp_out.o(i.tcp_enqueue)
    i.tcp_fasttmr                            0x08007b68   Section        0  tcp.o(i.tcp_fasttmr)
    i.tcp_input                              0x08007bdc   Section        0  tcp_in.o(i.tcp_input)
    i.tcp_keepalive                          0x08008224   Section        0  tcp_out.o(i.tcp_keepalive)
    i.tcp_kill_prio                          0x08008308   Section        0  tcp.o(i.tcp_kill_prio)
    tcp_kill_prio                            0x08008309   Thumb Code    78  tcp.o(i.tcp_kill_prio)
    i.tcp_kill_timewait                      0x08008360   Section        0  tcp.o(i.tcp_kill_timewait)
    tcp_kill_timewait                        0x08008361   Thumb Code    52  tcp.o(i.tcp_kill_timewait)
    i.tcp_listen_input                       0x0800839c   Section        0  tcp_in.o(i.tcp_listen_input)
    tcp_listen_input                         0x0800839d   Thumb Code   276  tcp_in.o(i.tcp_listen_input)
    i.tcp_next_iss                           0x080084cc   Section        0  tcp.o(i.tcp_next_iss)
    i.tcp_output                             0x080084e8   Section        0  tcp_out.o(i.tcp_output)
    i.tcp_output_segment                     0x080087bc   Section        0  tcp_out.o(i.tcp_output_segment)
    tcp_output_segment                       0x080087bd   Thumb Code   190  tcp_out.o(i.tcp_output_segment)
    i.tcp_output_set_header                  0x08008884   Section        0  tcp_out.o(i.tcp_output_set_header)
    tcp_output_set_header                    0x08008885   Thumb Code   132  tcp_out.o(i.tcp_output_set_header)
    i.tcp_parseopt                           0x08008908   Section        0  tcp_in.o(i.tcp_parseopt)
    tcp_parseopt                             0x08008909   Thumb Code   178  tcp_in.o(i.tcp_parseopt)
    i.tcp_pcb_purge                          0x080089c0   Section        0  tcp.o(i.tcp_pcb_purge)
    i.tcp_pcb_remove                         0x080089f8   Section        0  tcp.o(i.tcp_pcb_remove)
    i.tcp_process                            0x08008b3c   Section        0  tcp_in.o(i.tcp_process)
    tcp_process                              0x08008b3d   Thumb Code  1622  tcp_in.o(i.tcp_process)
    i.tcp_receive                            0x080091ac   Section        0  tcp_in.o(i.tcp_receive)
    tcp_receive                              0x080091ad   Thumb Code  2120  tcp_in.o(i.tcp_receive)
    i.tcp_recv_null                          0x08009aa4   Section        0  tcp.o(i.tcp_recv_null)
    tcp_recv_null                            0x08009aa5   Thumb Code    40  tcp.o(i.tcp_recv_null)
    i.tcp_rexmit                             0x08009acc   Section        0  tcp_out.o(i.tcp_rexmit)
    i.tcp_rexmit_rto                         0x08009b22   Section        0  tcp_out.o(i.tcp_rexmit_rto)
    i.tcp_rst                                0x08009b5c   Section        0  tcp_out.o(i.tcp_rst)
    i.tcp_seg_free                           0x08009c90   Section        0  tcp.o(i.tcp_seg_free)
    i.tcp_segs_free                          0x08009cb0   Section        0  tcp.o(i.tcp_segs_free)
    i.tcp_send_ctrl                          0x08009cce   Section        0  tcp_out.o(i.tcp_send_ctrl)
    i.tcp_slowtmr                            0x08009cec   Section        0  tcp.o(i.tcp_slowtmr)
    i.tcp_timer_needed                       0x0800a228   Section        0  tcpip.o(i.tcp_timer_needed)
    i.tcp_timewait_input                     0x0800a260   Section        0  tcp_in.o(i.tcp_timewait_input)
    tcp_timewait_input                       0x0800a261   Thumb Code    72  tcp_in.o(i.tcp_timewait_input)
    i.tcp_tmr                                0x0800a2b0   Section        0  tcp.o(i.tcp_tmr)
    i.tcp_update_rcv_ann_wnd                 0x0800a2d4   Section        0  tcp.o(i.tcp_update_rcv_ann_wnd)
    i.tcp_zero_window_probe                  0x0800a30c   Section        0  tcp_out.o(i.tcp_zero_window_probe)
    i.tcpip_init                             0x0800a3f8   Section        0  tcpip.o(i.tcpip_init)
    i.tcpip_input                            0x0800a448   Section        0  tcpip.o(i.tcpip_input)
    i.tcpip_tcp_timer                        0x0800a494   Section        0  tcpip.o(i.tcpip_tcp_timer)
    tcpip_tcp_timer                          0x0800a495   Thumb Code    40  tcpip.o(i.tcpip_tcp_timer)
    i.tcpip_thread                           0x0800a4cc   Section        0  tcpip.o(i.tcpip_thread)
    tcpip_thread                             0x0800a4cd   Thumb Code   184  tcpip.o(i.tcpip_thread)
    i.udp_input                              0x0800a598   Section        0  udp.o(i.udp_input)
    i.update_arp_entry                       0x0800a7bc   Section        0  etharp.o(i.update_arp_entry)
    update_arp_entry                         0x0800a7bd   Thumb Code   258  etharp.o(i.update_arp_entry)
    .constdata                               0x0800a934   Section      256  os_core.o(.constdata)
    .constdata                               0x0800aa34   Section       94  os_dbg.o(.constdata)
    .constdata                               0x0800aa94   Section        4  sys_arch.o(.constdata)
    .constdata                               0x0800aa98   Section       48  memp.o(.constdata)
    memp_sizes                               0x0800aa98   Data          24  memp.o(.constdata)
    memp_num                                 0x0800aab0   Data          24  memp.o(.constdata)
    .constdata                               0x0800aac8   Section       20  tcp.o(.constdata)
    .constdata                               0x0800aadc   Section       81  tcp_out.o(.constdata)
    .constdata                               0x0800ab30   Section       80  etharp.o(.constdata)
    .data                                    0x20000000   Section       20  stm32f10x_rcc.o(.data)
    APBAHBPrescTable                         0x20000000   Data          16  stm32f10x_rcc.o(.data)
    ADCPrescTable                            0x20000010   Data           4  stm32f10x_rcc.o(.data)
    .data                                    0x20000014   Section       20  system_stm32f10x.o(.data)
    .data                                    0x20000028   Section       16  stm32_eth.o(.data)
    .data                                    0x20000038   Section       68  os_core.o(.data)
    .data                                    0x2000007c   Section       18  ethernetif.o(.data)
    .data                                    0x20000090   Section        8  sys_arch.o(.data)
    pQueueMem                                0x20000090   Data           4  sys_arch.o(.data)
    .data                                    0x20000098   Section       16  tcpip.o(.data)
    mbox                                     0x20000098   Data           4  tcpip.o(.data)
    tcpip_init_done                          0x2000009c   Data           4  tcpip.o(.data)
    tcpip_init_done_arg                      0x200000a0   Data           4  tcpip.o(.data)
    tcpip_tcp_timer_active                   0x200000a4   Data           4  tcpip.o(.data)
    .data                                    0x200000a8   Section       16  mem.o(.data)
    ram                                      0x200000a8   Data           4  mem.o(.data)
    ram_end                                  0x200000ac   Data           4  mem.o(.data)
    lfree                                    0x200000b0   Data           4  mem.o(.data)
    mem_sem                                  0x200000b4   Data           4  mem.o(.data)
    .data                                    0x200000b8   Section       12  netif.o(.data)
    netifnum                                 0x200000b8   Data           1  netif.o(.data)
    .data                                    0x200000c4   Section        4  raw.o(.data)
    raw_pcbs                                 0x200000c4   Data           4  raw.o(.data)
    .data                                    0x200000c8   Section       33  tcp.o(.data)
    port                                     0x200000c8   Data           2  tcp.o(.data)
    iss                                      0x200000cc   Data           4  tcp.o(.data)
    tcp_timer                                0x200000e8   Data           1  tcp.o(.data)
    .data                                    0x200000ec   Section       32  tcp_in.o(.data)
    tcphdr                                   0x200000ec   Data           4  tcp_in.o(.data)
    iphdr                                    0x200000f0   Data           4  tcp_in.o(.data)
    seqno                                    0x200000f4   Data           4  tcp_in.o(.data)
    ackno                                    0x200000f8   Data           4  tcp_in.o(.data)
    flags                                    0x200000fc   Data           1  tcp_in.o(.data)
    tcplen                                   0x200000fe   Data           2  tcp_in.o(.data)
    recv_flags                               0x20000100   Data           1  tcp_in.o(.data)
    recv_data                                0x20000104   Data           4  tcp_in.o(.data)
    .data                                    0x2000010c   Section        4  udp.o(.data)
    .data                                    0x20000110   Section       12  ip.o(.data)
    ip_id                                    0x20000110   Data           2  ip.o(.data)
    current_netif                            0x20000114   Data           4  ip.o(.data)
    current_header                           0x20000118   Data           4  ip.o(.data)
    .data                                    0x2000011c   Section        6  ip_frag.o(.data)
    reassdatagrams                           0x2000011c   Data           4  ip_frag.o(.data)
    ip_reass_pbufcount                       0x20000120   Data           2  ip_frag.o(.data)
    .data                                    0x20000122   Section        1  etharp.o(.data)
    etharp_cached_entry                      0x20000122   Data           1  etharp.o(.data)
    .data                                    0x20000124   Section        4  stdout.o(.data)
    .bss                                     0x20000128   Section      512  main.o(.bss)
    App_TaskStartStk                         0x20000128   Data         512  main.o(.bss)
    .bss                                     0x20000328   Section       48  lwip.o(.bss)
    netif                                    0x20000328   Data          48  lwip.o(.bss)
    .bss                                     0x20000358   Section     1024  app.o(.bss)
    App_TaskToggleLEDStk                     0x20000358   Data         512  app.o(.bss)
    App_TaskToggleLED1Stk                    0x20000558   Data         512  app.o(.bss)
    .bss                                     0x20000758   Section     3596  os_core.o(.bss)
    .bss                                     0x20001564   Section     9216  ethernetif.o(.bss)
    .bss                                     0x20003964   Section     4456  sys_arch.o(.bss)
    pcQueueMemoryPool                        0x20004774   Data         843  sys_arch.o(.bss)
    .bss                                     0x20004acc   Section    20500  mem.o(.bss)
    ram_heap                                 0x20004acc   Data       20500  mem.o(.bss)
    .bss                                     0x20009ae0   Section    18507  memp.o(.bss)
    memp_tab                                 0x20009ae0   Data          48  memp.o(.bss)
    memp_memory                              0x20009b10   Data       18459  memp.o(.bss)
    .bss                                     0x2000e32c   Section       20  tcp_in.o(.bss)
    inseg                                    0x2000e32c   Data          20  tcp_in.o(.bss)
    .bss                                     0x2000e340   Section     1504  ip_frag.o(.bss)
    buf                                      0x2000e340   Data        1504  ip_frag.o(.bss)
    .bss                                     0x2000e920   Section      200  etharp.o(.bss)
    arp_table                                0x2000e920   Data         200  etharp.o(.bss)
    STACK                                    0x2000e9e8   Section     1024  startup_stm32f10x_cl.o(STACK)

    Global Symbols

    Symbol Name                              Value     Ov Type        Size  Object(Section)

    BuildAttributes$$THM_ISAv4$P$D$K$B$S$PE$A:L22UL41UL21$X:L11$S22US41US21$IEEE1$IW$USESV6$~STKCKD$USESV7$~SHL$OSPACE$ROPI$EBA8$MICROLIB$REQ8$PRES8$EABIv2 0x00000000   Number         0  anon$$obj.o ABSOLUTE
    __ARM_use_no_argv                        0x00000000   Number         0  main.o ABSOLUTE
    _printf_a                                0x00000000   Number         0  stubs.o ABSOLUTE
    _printf_c                                0x00000000   Number         0  stubs.o ABSOLUTE
    _printf_charcount                        0x00000000   Number         0  stubs.o ABSOLUTE
    _printf_d                                0x00000000   Number         0  stubs.o ABSOLUTE
    _printf_e                                0x00000000   Number         0  stubs.o ABSOLUTE
    _printf_f                                0x00000000   Number         0  stubs.o ABSOLUTE
    _printf_flags                            0x00000000   Number         0  stubs.o ABSOLUTE
    _printf_fp_dec                           0x00000000   Number         0  stubs.o ABSOLUTE
    _printf_fp_hex                           0x00000000   Number         0  stubs.o ABSOLUTE
    _printf_g                                0x00000000   Number         0  stubs.o ABSOLUTE
    _printf_i                                0x00000000   Number         0  stubs.o ABSOLUTE
    _printf_int_dec                          0x00000000   Number         0  stubs.o ABSOLUTE
    _printf_l                                0x00000000   Number         0  stubs.o ABSOLUTE
    _printf_lc                               0x00000000   Number         0  stubs.o ABSOLUTE
    _printf_ll                               0x00000000   Number         0  stubs.o ABSOLUTE
    _printf_lld                              0x00000000   Number         0  stubs.o ABSOLUTE
    _printf_lli                              0x00000000   Number         0  stubs.o ABSOLUTE
    _printf_llo                              0x00000000   Number         0  stubs.o ABSOLUTE
    _printf_llu                              0x00000000   Number         0  stubs.o ABSOLUTE
    _printf_llx                              0x00000000   Number         0  stubs.o ABSOLUTE
    _printf_longlong_dec                     0x00000000   Number         0  stubs.o ABSOLUTE
    _printf_longlong_hex                     0x00000000   Number         0  stubs.o ABSOLUTE
    _printf_longlong_oct                     0x00000000   Number         0  stubs.o ABSOLUTE
    _printf_ls                               0x00000000   Number         0  stubs.o ABSOLUTE
    _printf_mbtowc                           0x00000000   Number         0  stubs.o ABSOLUTE
    _printf_n                                0x00000000   Number         0  stubs.o ABSOLUTE
    _printf_o                                0x00000000   Number         0  stubs.o ABSOLUTE
    _printf_p                                0x00000000   Number         0  stubs.o ABSOLUTE
    _printf_percent                          0x00000000   Number         0  stubs.o ABSOLUTE
    _printf_pre_padding                      0x00000000   Number         0  stubs.o ABSOLUTE
    _printf_return_value                     0x00000000   Number         0  stubs.o ABSOLUTE
    _printf_s                                0x00000000   Number         0  stubs.o ABSOLUTE
    _printf_sizespec                         0x00000000   Number         0  stubs.o ABSOLUTE
    _printf_str                              0x00000000   Number         0  stubs.o ABSOLUTE
    _printf_truncate_signed                  0x00000000   Number         0  stubs.o ABSOLUTE
    _printf_truncate_unsigned                0x00000000   Number         0  stubs.o ABSOLUTE
    _printf_u                                0x00000000   Number         0  stubs.o ABSOLUTE
    _printf_wc                               0x00000000   Number         0  stubs.o ABSOLUTE
    _printf_wctomb                           0x00000000   Number         0  stubs.o ABSOLUTE
    _printf_widthprec                        0x00000000   Number         0  stubs.o ABSOLUTE
    _printf_x                                0x00000000   Number         0  stubs.o ABSOLUTE
    __decompress                              - Undefined Weak Reference
    _clock_init                               - Undefined Weak Reference
    __Vectors_Size                           0x00000150   Number         0  startup_stm32f10x_cl.o ABSOLUTE
    __Vectors                                0x08000000   Data           4  startup_stm32f10x_cl.o(RESET)
    __Vectors_End                            0x08000150   Data           0  startup_stm32f10x_cl.o(RESET)
    __main                                   0x08000151   Thumb Code     0  entry.o(.ARM.Collect$$$$00000000)
    _main_stk                                0x08000151   Thumb Code     0  entry2.o(.ARM.Collect$$$$00000001)
    _main_scatterload                        0x08000155   Thumb Code     0  entry5.o(.ARM.Collect$$$$00000004)
    __main_after_scatterload                 0x08000159   Thumb Code     0  entry5.o(.ARM.Collect$$$$00000004)
    _main_clock                              0x08000159   Thumb Code     0  entry7b.o(.ARM.Collect$$$$00000008)
    _main_init                               0x08000159   Thumb Code     0  entry8.o(.ARM.Collect$$$$00000009)
    Reset_Handler                            0x08000165   Thumb Code     8  startup_stm32f10x_cl.o(.text)
    CAN1_RX0_IRQHandler                      0x0800017f   Thumb Code     0  startup_stm32f10x_cl.o(.text)
    CAN1_TX_IRQHandler                       0x0800017f   Thumb Code     0  startup_stm32f10x_cl.o(.text)
    CAN2_RX0_IRQHandler                      0x0800017f   Thumb Code     0  startup_stm32f10x_cl.o(.text)
    CAN2_RX1_IRQHandler                      0x0800017f   Thumb Code     0  startup_stm32f10x_cl.o(.text)
    CAN2_SCE_IRQHandler                      0x0800017f   Thumb Code     0  startup_stm32f10x_cl.o(.text)
    CAN2_TX_IRQHandler                       0x0800017f   Thumb Code     0  startup_stm32f10x_cl.o(.text)
    DMA2_Channel1_IRQHandler                 0x0800017f   Thumb Code     0  startup_stm32f10x_cl.o(.text)
    DMA2_Channel2_IRQHandler                 0x0800017f   Thumb Code     0  startup_stm32f10x_cl.o(.text)
    DMA2_Channel3_IRQHandler                 0x0800017f   Thumb Code     0  startup_stm32f10x_cl.o(.text)
    DMA2_Channel4_IRQHandler                 0x0800017f   Thumb Code     0  startup_stm32f10x_cl.o(.text)
    DMA2_Channel5_IRQHandler                 0x0800017f   Thumb Code     0  startup_stm32f10x_cl.o(.text)
    ETH_WKUP_IRQHandler                      0x0800017f   Thumb Code     0  startup_stm32f10x_cl.o(.text)
    OTG_FS_IRQHandler                        0x0800017f   Thumb Code     0  startup_stm32f10x_cl.o(.text)
    OTG_FS_WKUP_IRQHandler                   0x0800017f   Thumb Code     0  startup_stm32f10x_cl.o(.text)
    SPI3_IRQHandler                          0x0800017f   Thumb Code     0  startup_stm32f10x_cl.o(.text)
    TIM5_IRQHandler                          0x0800017f   Thumb Code     0  startup_stm32f10x_cl.o(.text)
    TIM6_IRQHandler                          0x0800017f   Thumb Code     0  startup_stm32f10x_cl.o(.text)
    TIM7_IRQHandler                          0x0800017f   Thumb Code     0  startup_stm32f10x_cl.o(.text)
    UART4_IRQHandler                         0x0800017f   Thumb Code     0  startup_stm32f10x_cl.o(.text)
    UART5_IRQHandler                         0x0800017f   Thumb Code     0  startup_stm32f10x_cl.o(.text)
    OS_CPU_SR_Save                           0x08000189   Thumb Code     0  os_cpu_a.o(.text)
    OS_CPU_SR_Restore                        0x08000191   Thumb Code     0  os_cpu_a.o(.text)
    OSStartHighRdy                           0x08000197   Thumb Code     0  os_cpu_a.o(.text)
    OSCtxSw                                  0x080001b7   Thumb Code     0  os_cpu_a.o(.text)
    OSIntCtxSw                               0x080001c1   Thumb Code     0  os_cpu_a.o(.text)
    PendSV_Handler                           0x080001cb   Thumb Code     0  os_cpu_a.o(.text)
    __aeabi_memcpy                           0x0800022d   Thumb Code    36  memcpya.o(.text)
    __aeabi_memcpy4                          0x0800022d   Thumb Code     0  memcpya.o(.text)
    __aeabi_memcpy8                          0x0800022d   Thumb Code     0  memcpya.o(.text)
    __aeabi_memset                           0x08000251   Thumb Code    14  memseta.o(.text)
    __aeabi_memset4                          0x08000251   Thumb Code     0  memseta.o(.text)
    __aeabi_memset8                          0x08000251   Thumb Code     0  memseta.o(.text)
    __aeabi_memclr                           0x0800025f   Thumb Code     4  memseta.o(.text)
    __aeabi_memclr4                          0x0800025f   Thumb Code     0  memseta.o(.text)
    __aeabi_memclr8                          0x0800025f   Thumb Code     0  memseta.o(.text)
    _memset$wrapper                          0x08000263   Thumb Code    18  memseta.o(.text)
    __aeabi_uidiv                            0x08000275   Thumb Code     0  uidiv.o(.text)
    __aeabi_uidivmod                         0x08000275   Thumb Code    44  uidiv.o(.text)
    __scatterload                            0x080002a1   Thumb Code    28  init.o(.text)
    __scatterload_rt2                        0x080002a1   Thumb Code     0  init.o(.text)
    ADC1_2_IRQHandler                        0x080002c5   Thumb Code     2  stm32f10x_it.o(i.ADC1_2_IRQHandler)
    App_TaskCreate                           0x080002c9   Thumb Code    38  app.o(i.App_TaskCreate)
    BSP_Init                                 0x080004a5   Thumb Code    24  bsp.o(i.BSP_Init)
    BSP_Led1Toggle                           0x080004bd   Thumb Code    12  bsp.o(i.BSP_Led1Toggle)
    BSP_LedToggle                            0x08000501   Thumb Code    12  bsp.o(i.BSP_LedToggle)
    BSP_NVICConfiguration                    0x08000511   Thumb Code    52  bsp.o(i.BSP_NVICConfiguration)
    BusFault_Handler                         0x080005e1   Thumb Code     4  stm32f10x_it.o(i.BusFault_Handler)
    CAN1_RX1_IRQHandler                      0x080005e5   Thumb Code     2  stm32f10x_it.o(i.CAN1_RX1_IRQHandler)
    CAN1_SCE_IRQHandler                      0x080005e7   Thumb Code     2  stm32f10x_it.o(i.CAN1_SCE_IRQHandler)
    DMA1_Channel1_IRQHandler                 0x080005e9   Thumb Code     2  stm32f10x_it.o(i.DMA1_Channel1_IRQHandler)
    DMA1_Channel2_IRQHandler                 0x080005eb   Thumb Code     2  stm32f10x_it.o(i.DMA1_Channel2_IRQHandler)
    DMA1_Channel3_IRQHandler                 0x080005ed   Thumb Code     2  stm32f10x_it.o(i.DMA1_Channel3_IRQHandler)
    DMA1_Channel4_IRQHandler                 0x080005ef   Thumb Code     2  stm32f10x_it.o(i.DMA1_Channel4_IRQHandler)
    DMA1_Channel5_IRQHandler                 0x080005f1   Thumb Code     2  stm32f10x_it.o(i.DMA1_Channel5_IRQHandler)
    DMA1_Channel6_IRQHandler                 0x080005f3   Thumb Code     2  stm32f10x_it.o(i.DMA1_Channel6_IRQHandler)
    DMA1_Channel7_IRQHandler                 0x080005f5   Thumb Code     2  stm32f10x_it.o(i.DMA1_Channel7_IRQHandler)
    DebugMon_Handler                         0x080005f7   Thumb Code     2  stm32f10x_it.o(i.DebugMon_Handler)
    ETH_DMAClearITPendingBit                 0x080005f9   Thumb Code     6  stm32_eth.o(i.ETH_DMAClearITPendingBit)
    ETH_DMAITConfig                          0x08000605   Thumb Code    26  stm32_eth.o(i.ETH_DMAITConfig)
    ETH_DMAReceptionCmd                      0x08000625   Thumb Code    30  stm32_eth.o(i.ETH_DMAReceptionCmd)
    ETH_DMARxDescChainInit                   0x08000649   Thumb Code    76  stm32_eth.o(i.ETH_DMARxDescChainInit)
    ETH_DMARxDescReceiveITConfig             0x0800069d   Thumb Code    22  stm32_eth.o(i.ETH_DMARxDescReceiveITConfig)
    ETH_DMATransmissionCmd                   0x080006b5   Thumb Code    30  stm32_eth.o(i.ETH_DMATransmissionCmd)
    ETH_DMATxDescChainInit                   0x080006d9   Thumb Code    70  stm32_eth.o(i.ETH_DMATxDescChainInit)
    ETH_DMATxDescChecksumInsertionConfig     0x08000729   Thumb Code     8  stm32_eth.o(i.ETH_DMATxDescChecksumInsertionConfig)
    ETH_DeInit                               0x08000731   Thumb Code    22  stm32_eth.o(i.ETH_DeInit)
    ETH_FlushTransmitFIFO                    0x08000755   Thumb Code    14  stm32_eth.o(i.ETH_FlushTransmitFIFO)
    ETH_GetCurrentTxBuffer                   0x08000769   Thumb Code     8  ethernetif.o(i.ETH_GetCurrentTxBuffer)
    ETH_GetDMARxDescFrameLength              0x08000775   Thumb Code    10  stm32_eth.o(i.ETH_GetDMARxDescFrameLength)
    ETH_GetRxPktSize                         0x08000781   Thumb Code    66  stm32_eth.o(i.ETH_GetRxPktSize)
    ETH_GetSoftwareResetStatus               0x080007c9   Thumb Code    20  stm32_eth.o(i.ETH_GetSoftwareResetStatus)
    ETH_IRQHandler                           0x080007e1   Thumb Code    32  stm32f10x_it.o(i.ETH_IRQHandler)
    ETH_Init                                 0x08000801   Thumb Code   554  stm32_eth.o(i.ETH_Init)
    ETH_MACAddressConfig                     0x08000a51   Thumb Code    46  stm32_eth.o(i.ETH_MACAddressConfig)
    ETH_MACReceptionCmd                      0x08000a85   Thumb Code    30  stm32_eth.o(i.ETH_MACReceptionCmd)
    ETH_MACTransmissionCmd                   0x08000aa9   Thumb Code    30  stm32_eth.o(i.ETH_MACTransmissionCmd)
    ETH_ReadPHYRegister                      0x08000acd   Thumb Code    88  stm32_eth.o(i.ETH_ReadPHYRegister)
    ETH_RxPkt_ChainMode                      0x08000b2d   Thumb Code   148  ethernetif.o(i.ETH_RxPkt_ChainMode)
    ETH_SoftwareReset                        0x08000bc9   Thumb Code    14  stm32_eth.o(i.ETH_SoftwareReset)
    ETH_Start                                0x08000bdd   Thumb Code    32  stm32_eth.o(i.ETH_Start)
    ETH_StructInit                           0x08000bfd   Thumb Code   164  stm32_eth.o(i.ETH_StructInit)
    ETH_TxPkt_ChainMode                      0x08000ca1   Thumb Code    94  ethernetif.o(i.ETH_TxPkt_ChainMode)
    ETH_WritePHYRegister                     0x08000d09   Thumb Code    88  stm32_eth.o(i.ETH_WritePHYRegister)
    EXTI0_IRQHandler                         0x08000d69   Thumb Code     2  stm32f10x_it.o(i.EXTI0_IRQHandler)
    EXTI15_10_IRQHandler                     0x08000d6b   Thumb Code     2  stm32f10x_it.o(i.EXTI15_10_IRQHandler)
    EXTI1_IRQHandler                         0x08000d6d   Thumb Code     2  stm32f10x_it.o(i.EXTI1_IRQHandler)
    EXTI2_IRQHandler                         0x08000d6f   Thumb Code     2  stm32f10x_it.o(i.EXTI2_IRQHandler)
    EXTI3_IRQHandler                         0x08000d71   Thumb Code     2  stm32f10x_it.o(i.EXTI3_IRQHandler)
    EXTI4_IRQHandler                         0x08000d73   Thumb Code     2  stm32f10x_it.o(i.EXTI4_IRQHandler)
    EXTI9_5_IRQHandler                       0x08000d75   Thumb Code     2  stm32f10x_it.o(i.EXTI9_5_IRQHandler)
    FLASH_IRQHandler                         0x08000e19   Thumb Code     2  stm32f10x_it.o(i.FLASH_IRQHandler)
    GPIO_ETH_MediaInterfaceConfig            0x08000e1d   Thumb Code     6  stm32f10x_gpio.o(i.GPIO_ETH_MediaInterfaceConfig)
    GPIO_Init                                0x08000e29   Thumb Code   274  stm32f10x_gpio.o(i.GPIO_Init)
    GPIO_PinRemapConfig                      0x08000f3d   Thumb Code   138  stm32f10x_gpio.o(i.GPIO_PinRemapConfig)
    GPIO_SetBits                             0x08000fcd   Thumb Code     4  stm32f10x_gpio.o(i.GPIO_SetBits)
    HardFault_Handler                        0x08000fd1   Thumb Code     4  stm32f10x_it.o(i.HardFault_Handler)
    I2C1_ER_IRQHandler                       0x08000fd5   Thumb Code     2  stm32f10x_it.o(i.I2C1_ER_IRQHandler)
    I2C1_EV_IRQHandler                       0x08000fd7   Thumb Code     2  stm32f10x_it.o(i.I2C1_EV_IRQHandler)
    I2C2_ER_IRQHandler                       0x08000fd9   Thumb Code     2  stm32f10x_it.o(i.I2C2_ER_IRQHandler)
    I2C2_EV_IRQHandler                       0x08000fdb   Thumb Code     2  stm32f10x_it.o(i.I2C2_EV_IRQHandler)
    Init_LwIP                                0x08000fdd   Thumb Code   138  lwip.o(i.Init_LwIP)
    LwIP_Pkt_Handle                          0x080010b9   Thumb Code    10  lwip.o(i.LwIP_Pkt_Handle)
    MemManage_Handler                        0x080010c9   Thumb Code     4  stm32f10x_it.o(i.MemManage_Handler)
    NMI_Handler                              0x080010cd   Thumb Code     2  stm32f10x_it.o(i.NMI_Handler)
    NVIC_Init                                0x080010d1   Thumb Code   102  misc.o(i.NVIC_Init)
    NVIC_PriorityGroupConfig                 0x08001145   Thumb Code    10  misc.o(i.NVIC_PriorityGroupConfig)
    NVIC_SetVectorTable                      0x08001159   Thumb Code    12  misc.o(i.NVIC_SetVectorTable)
    OSDebugInit                              0x0800116d   Thumb Code    94  os_dbg.o(i.OSDebugInit)
    OSInit                                   0x08001281   Thumb Code    48  os_core.o(i.OSInit)
    OSInitHookBegin                          0x080012b1   Thumb Code     2  os_cpu_c.o(i.OSInitHookBegin)
    OSInitHookEnd                            0x080012b3   Thumb Code     2  os_cpu_c.o(i.OSInitHookEnd)
    OSIntExit                                0x080012b5   Thumb Code   112  os_core.o(i.OSIntExit)
    OSMemCreate                              0x08001345   Thumb Code   166  os_mem.o(i.OSMemCreate)
    OSMemGet                                 0x080013f1   Thumb Code    78  os_mem.o(i.OSMemGet)
    OSMemPut                                 0x0800143f   Thumb Code    66  os_mem.o(i.OSMemPut)
    OSQCreate                                0x08001481   Thumb Code   150  os_q.o(i.OSQCreate)
    OSQPend                                  0x08001525   Thumb Code   294  os_q.o(i.OSQPend)
    OSQPost                                  0x08001659   Thumb Code   120  os_q.o(i.OSQPost)
    OSSemCreate                              0x080016d1   Thumb Code    78  os_sem.o(i.OSSemCreate)
    OSSemDel                                 0x08001729   Thumb Code   236  os_sem.o(i.OSSemDel)
    OSSemPend                                0x0800181d   Thumb Code   240  os_sem.o(i.OSSemPend)
    OSSemPost                                0x08001919   Thumb Code    94  os_sem.o(i.OSSemPost)
    OSStart                                  0x08001979   Thumb Code    48  os_core.o(i.OSStart)
    OSTCBInitHook                            0x080019c1   Thumb Code     2  os_cpu_c.o(i.OSTCBInitHook)
    OSTaskCreate                             0x080019c5   Thumb Code   158  os_task.o(i.OSTaskCreate)
    OSTaskCreateExt                          0x08001a71   Thumb Code   180  os_task.o(i.OSTaskCreateExt)
    OSTaskCreateHook                         0x08001b31   Thumb Code     2  os_cpu_c.o(i.OSTaskCreateHook)
    OSTaskDel                                0x08001b35   Thumb Code   304  os_task.o(i.OSTaskDel)
    OSTaskDelHook                            0x08001c8d   Thumb Code     2  os_cpu_c.o(i.OSTaskDelHook)
    OSTaskIdleHook                           0x08001c8f   Thumb Code     2  os_cpu_c.o(i.OSTaskIdleHook)
    OSTaskNameSet                            0x08001c91   Thumb Code   160  os_task.o(i.OSTaskNameSet)
    OSTaskQuery                              0x08001d3d   Thumb Code   100  os_task.o(i.OSTaskQuery)
    OSTaskStatHook                           0x08001da9   Thumb Code     2  os_cpu_c.o(i.OSTaskStatHook)
    OSTaskStkChk                             0x08001dad   Thumb Code   150  os_task.o(i.OSTaskStkChk)
    OSTaskStkInit                            0x08001e4d   Thumb Code   154  os_cpu_c.o(i.OSTaskStkInit)
    OSTaskSuspend                            0x08001ee9   Thumb Code   172  os_task.o(i.OSTaskSuspend)
    OSTaskSwHook                             0x08001fa5   Thumb Code     2  os_cpu_c.o(i.OSTaskSwHook)
    OSTimeDly                                0x08001fa9   Thumb Code    96  os_time.o(i.OSTimeDly)
    OSTimeDlyHMSM                            0x08002019   Thumb Code   160  os_time.o(i.OSTimeDlyHMSM)
    OSTimeGet                                0x080020bd   Thumb Code    24  os_time.o(i.OSTimeGet)
    OSTimeTick                               0x080020d9   Thumb Code   220  os_core.o(i.OSTimeTick)
    OSTimeTickHook                           0x080021cd   Thumb Code     2  os_cpu_c.o(i.OSTimeTickHook)
    OS_Dummy                                 0x080021cf   Thumb Code     2  os_core.o(i.OS_Dummy)
    OS_EventTaskRdy                          0x080021d1   Thumb Code   118  os_core.o(i.OS_EventTaskRdy)
    OS_EventTaskRemove                       0x08002259   Thumb Code    42  os_core.o(i.OS_EventTaskRemove)
    OS_EventTaskWait                         0x08002285   Thumb Code   112  os_core.o(i.OS_EventTaskWait)
    OS_EventWaitListInit                     0x08002301   Thumb Code    28  os_core.o(i.OS_EventWaitListInit)
    OS_MemClr                                0x08002511   Thumb Code    18  os_core.o(i.OS_MemClr)
    OS_MemCopy                               0x08002523   Thumb Code    20  os_core.o(i.OS_MemCopy)
    OS_MemInit                               0x08002539   Thumb Code    68  os_mem.o(i.OS_MemInit)
    OS_QInit                                 0x08002585   Thumb Code    46  os_q.o(i.OS_QInit)
    OS_Sched                                 0x080025bd   Thumb Code    86  os_core.o(i.OS_Sched)
    OS_StrCopy                               0x0800265d   Thumb Code    28  os_core.o(i.OS_StrCopy)
    OS_StrLen                                0x08002679   Thumb Code    20  os_core.o(i.OS_StrLen)
    OS_TCBInit                               0x0800268d   Thumb Code   274  os_core.o(i.OS_TCBInit)
    OS_TaskIdle                              0x080027b9   Thumb Code    32  os_core.o(i.OS_TaskIdle)
    OS_TaskStat                              0x080027dd   Thumb Code   114  os_core.o(i.OS_TaskStat)
    OS_TaskStatStkChk                        0x08002865   Thumb Code    54  os_core.o(i.OS_TaskStatStkChk)
    OS_TaskStkClr                            0x080028a1   Thumb Code    26  os_task.o(i.OS_TaskStkClr)
    PVD_IRQHandler                           0x080028bb   Thumb Code     2  stm32f10x_it.o(i.PVD_IRQHandler)
    RCC_AHBPeriphClockCmd                    0x080028bd   Thumb Code    26  stm32f10x_rcc.o(i.RCC_AHBPeriphClockCmd)
    RCC_AHBPeriphResetCmd                    0x080028dd   Thumb Code    26  stm32f10x_rcc.o(i.RCC_AHBPeriphResetCmd)
    RCC_APB2PeriphClockCmd                   0x080028fd   Thumb Code    26  stm32f10x_rcc.o(i.RCC_APB2PeriphClockCmd)
    RCC_GetClocksFreq                        0x0800291d   Thumb Code   374  stm32f10x_rcc.o(i.RCC_GetClocksFreq)
    RCC_GetFlagStatus                        0x08002aad   Thumb Code    56  stm32f10x_rcc.o(i.RCC_GetFlagStatus)
    RCC_IRQHandler                           0x08002ae9   Thumb Code     2  stm32f10x_it.o(i.RCC_IRQHandler)
    RCC_MCOConfig                            0x08002aed   Thumb Code     6  stm32f10x_rcc.o(i.RCC_MCOConfig)
    RCC_PLL3Cmd                              0x08002af9   Thumb Code     6  stm32f10x_rcc.o(i.RCC_PLL3Cmd)
    RCC_PLL3Config                           0x08002b05   Thumb Code    18  stm32f10x_rcc.o(i.RCC_PLL3Config)
    RTCAlarm_IRQHandler                      0x08002b1d   Thumb Code     2  stm32f10x_it.o(i.RTCAlarm_IRQHandler)
    RTC_IRQHandler                           0x08002b1f   Thumb Code     2  stm32f10x_it.o(i.RTC_IRQHandler)
    SPI1_IRQHandler                          0x08002b21   Thumb Code     2  stm32f10x_it.o(i.SPI1_IRQHandler)
    SPI2_IRQHandler                          0x08002b23   Thumb Code     2  stm32f10x_it.o(i.SPI2_IRQHandler)
    SVC_Handler                              0x08002b25   Thumb Code     2  stm32f10x_it.o(i.SVC_Handler)
    Set_MAC_Address                          0x08002c31   Thumb Code    40  ethernetif.o(i.Set_MAC_Address)
    SysTick_Handler                          0x08002c5d   Thumb Code    34  stm32f10x_it.o(i.SysTick_Handler)
    SysTick_Init                             0x08002c85   Thumb Code    84  bsp.o(i.SysTick_Init)
    SystemInit                               0x08002ce5   Thumb Code    92  system_stm32f10x.o(i.SystemInit)
    TAMPER_IRQHandler                        0x08002d51   Thumb Code     2  stm32f10x_it.o(i.TAMPER_IRQHandler)
    TIM1_BRK_IRQHandler                      0x08002d53   Thumb Code     2  stm32f10x_it.o(i.TIM1_BRK_IRQHandler)
    TIM1_CC_IRQHandler                       0x08002d55   Thumb Code     2  stm32f10x_it.o(i.TIM1_CC_IRQHandler)
    TIM1_TRG_COM_IRQHandler                  0x08002d57   Thumb Code     2  stm32f10x_it.o(i.TIM1_TRG_COM_IRQHandler)
    TIM1_UP_IRQHandler                       0x08002d59   Thumb Code     2  stm32f10x_it.o(i.TIM1_UP_IRQHandler)
    TIM2_IRQHandler                          0x08002d5b   Thumb Code     2  stm32f10x_it.o(i.TIM2_IRQHandler)
    TIM3_IRQHandler                          0x08002d5d   Thumb Code     2  stm32f10x_it.o(i.TIM3_IRQHandler)
    TIM4_IRQHandler                          0x08002d5f   Thumb Code     2  stm32f10x_it.o(i.TIM4_IRQHandler)
    USART1_IRQHandler                        0x08002d6f   Thumb Code     2  stm32f10x_it.o(i.USART1_IRQHandler)
    USART2_IRQHandler                        0x08002d71   Thumb Code     2  stm32f10x_it.o(i.USART2_IRQHandler)
    USART3_IRQHandler                        0x08002d73   Thumb Code     2  stm32f10x_it.o(i.USART3_IRQHandler)
    USART_ClockInit                          0x08002d75   Thumb Code    34  stm32f10x_usart.o(i.USART_ClockInit)
    USART_Cmd                                0x08002d97   Thumb Code    24  stm32f10x_usart.o(i.USART_Cmd)
    USART_Init                               0x08002db1   Thumb Code   210  stm32f10x_usart.o(i.USART_Init)
    USART_SendData                           0x08002e89   Thumb Code     8  stm32f10x_usart.o(i.USART_SendData)
    UsageFault_Handler                       0x08002e91   Thumb Code     4  stm32f10x_it.o(i.UsageFault_Handler)
    WWDG_IRQHandler                          0x08002e95   Thumb Code     2  stm32f10x_it.o(i.WWDG_IRQHandler)
    __0printf$3                              0x08002e99   Thumb Code    22  printf3.o(i.__0printf$3)
    __1printf$3                              0x08002e99   Thumb Code     0  printf3.o(i.__0printf$3)
    __2printf                                0x08002e99   Thumb Code     0  printf3.o(i.__0printf$3)
    __scatterload_copy                       0x08002eb9   Thumb Code    14  handlers.o(i.__scatterload_copy)
    __scatterload_null                       0x08002ec7   Thumb Code     2  handlers.o(i.__scatterload_null)
    __scatterload_zeroinit                   0x08002ec9   Thumb Code    14  handlers.o(i.__scatterload_zeroinit)
    etharp_arp_input                         0x080030ad   Thumb Code   334  etharp.o(i.etharp_arp_input)
    etharp_ip_input                          0x08003259   Thumb Code    72  etharp.o(i.etharp_ip_input)
    etharp_output                            0x080032f9   Thumb Code   198  etharp.o(i.etharp_output)
    etharp_query                             0x080033c5   Thumb Code   464  etharp.o(i.etharp_query)
    etharp_request                           0x0800378d   Thumb Code    36  etharp.o(i.etharp_request)
    etharp_tmr                               0x08003861   Thumb Code   154  etharp.o(i.etharp_tmr)
    ethernet_input                           0x08003901   Thumb Code   124  etharp.o(i.ethernet_input)
    ethernetif_init                          0x080039e9   Thumb Code    82  ethernetif.o(i.ethernetif_init)
    ethernetif_input                         0x08003a9d   Thumb Code    44  ethernetif.o(i.ethernetif_input)
    fputc                                    0x08003d5d   Thumb Code    30  bsp.o(i.fputc)
    htonl                                    0x08003e59   Thumb Code    26  inet.o(i.htonl)
    htons                                    0x08003e73   Thumb Code    12  inet.o(i.htons)
    icmp_dest_unreach                        0x08003e7f   Thumb Code    18  icmp.o(i.icmp_dest_unreach)
    icmp_input                               0x08003e91   Thumb Code   480  icmp.o(i.icmp_input)
    icmp_time_exceeded                       0x080042a5   Thumb Code    18  icmp.o(i.icmp_time_exceeded)
    inet_chksum                              0x080042b7   Thumb Code    20  inet_chksum.o(i.inet_chksum)
    inet_chksum_pbuf                         0x080042cb   Thumb Code    86  inet_chksum.o(i.inet_chksum_pbuf)
    ip_addr_isbroadcast                      0x08004321   Thumb Code    78  ip_addr.o(i.ip_addr_isbroadcast)
    ip_frag                                  0x08004371   Thumb Code   326  ip_frag.o(i.ip_frag)
    ip_input                                 0x080044bd   Thumb Code   398  ip.o(i.ip_input)
    ip_output                                0x08004659   Thumb Code    52  ip.o(i.ip_output)
    ip_output_if                             0x0800468d   Thumb Code   268  ip.o(i.ip_output_if)
    ip_reass                                 0x08004815   Thumb Code   400  ip_frag.o(i.ip_reass)
    ip_reass_tmr                             0x08004fa1   Thumb Code    48  ip_frag.o(i.ip_reass_tmr)
    ip_route                                 0x08004fd5   Thumb Code    70  ip.o(i.ip_route)
    lwip_init                                0x08005171   Thumb Code    16  init.o(i.lwip_init)
    main                                     0x080051cd   Thumb Code    46  main.o(i.main)
    mem_free                                 0x08005209   Thumb Code   166  mem.o(i.mem_free)
    mem_init                                 0x08005355   Thumb Code    86  mem.o(i.mem_init)
    mem_malloc                               0x080053c1   Thumb Code   390  mem.o(i.mem_malloc)
    mem_realloc                              0x0800563d   Thumb Code   326  mem.o(i.mem_realloc)
    memp_free                                0x08005819   Thumb Code    58  memp.o(i.memp_free)
    memp_init                                0x080058bd   Thumb Code    82  memp.o(i.memp_init)
    memp_malloc                              0x08005921   Thumb Code    86  memp.o(i.memp_malloc)
    netif_add                                0x08005a05   Thumb Code    96  netif.o(i.netif_add)
    netif_is_up                              0x08005a6d   Thumb Code    12  netif.o(i.netif_is_up)
    netif_set_addr                           0x08005a79   Thumb Code    40  netif.o(i.netif_set_addr)
    netif_set_default                        0x08005aa1   Thumb Code     6  netif.o(i.netif_set_default)
    netif_set_gw                             0x08005aad   Thumb Code    12  netif.o(i.netif_set_gw)
    netif_set_ipaddr                         0x08005ab9   Thumb Code   110  netif.o(i.netif_set_ipaddr)
    netif_set_netmask                        0x08005b31   Thumb Code    12  netif.o(i.netif_set_netmask)
    netif_set_up                             0x08005b3d   Thumb Code    44  netif.o(i.netif_set_up)
    ntohl                                    0x08005b69   Thumb Code    12  inet.o(i.ntohl)
    ntohs                                    0x08005b75   Thumb Code    12  inet.o(i.ntohs)
    pbuf_alloc                               0x08005b81   Thumb Code   654  pbuf.o(i.pbuf_alloc)
    pbuf_cat                                 0x08005f95   Thumb Code   126  pbuf.o(i.pbuf_cat)
    pbuf_chain                               0x080060d1   Thumb Code    22  pbuf.o(i.pbuf_chain)
    pbuf_clen                                0x080060e7   Thumb Code    18  pbuf.o(i.pbuf_clen)
    pbuf_copy                                0x080060f9   Thumb Code   308  pbuf.o(i.pbuf_copy)
    pbuf_copy_partial                        0x08006311   Thumb Code   182  pbuf.o(i.pbuf_copy_partial)
    pbuf_free                                0x08006451   Thumb Code   194  pbuf.o(i.pbuf_free)
    pbuf_header                              0x08006595   Thumb Code   192  pbuf.o(i.pbuf_header)
    pbuf_realloc                             0x080066d5   Thumb Code   248  pbuf.o(i.pbuf_realloc)
    pbuf_ref                                 0x0800688d   Thumb Code    10  pbuf.o(i.pbuf_ref)
    raw_input                                0x08006a41   Thumb Code   100  raw.o(i.raw_input)
    sys_arch_mbox_fetch                      0x08006aa9   Thumb Code   168  sys_arch.o(i.sys_arch_mbox_fetch)
    sys_arch_sem_wait                        0x08006ba5   Thumb Code   112  sys_arch.o(i.sys_arch_sem_wait)
    sys_arch_timeouts                        0x08006c15   Thumb Code    50  sys_arch.o(i.sys_arch_timeouts)
    sys_init                                 0x08006c51   Thumb Code    72  sys_arch.o(i.sys_init)
    sys_mbox_fetch                           0x08006cf9   Thumb Code   124  sys.o(i.sys_mbox_fetch)
    sys_mbox_new                             0x08006d75   Thumb Code   118  sys_arch.o(i.sys_mbox_new)
    sys_mbox_trypost                         0x08006e4d   Thumb Code    32  sys_arch.o(i.sys_mbox_trypost)
    sys_sem_free                             0x08006e71   Thumb Code    42  sys_arch.o(i.sys_sem_free)
    sys_sem_new                              0x08006eed   Thumb Code    38  sys_arch.o(i.sys_sem_new)
    sys_sem_signal                           0x08006f69   Thumb Code    14  sys_arch.o(i.sys_sem_signal)
    sys_sem_wait                             0x08006f77   Thumb Code   116  sys.o(i.sys_sem_wait)
    sys_thread_new                           0x08006fed   Thumb Code   124  sys_arch.o(i.sys_thread_new)
    sys_timeout                              0x0800706d   Thumb Code   192  sys.o(i.sys_timeout)
    sys_untimeout                            0x080071b1   Thumb Code   120  sys.o(i.sys_untimeout)
    tcp_abandon                              0x0800728d   Thumb Code   146  tcp.o(i.tcp_abandon)
    tcp_alloc                                0x08007329   Thumb Code   186  tcp.o(i.tcp_alloc)
    tcp_close                                0x080073f1   Thumb Code   242  tcp.o(i.tcp_close)
    tcp_eff_send_mss                         0x080074f5   Thumb Code    46  tcp.o(i.tcp_eff_send_mss)
    tcp_enqueue                              0x08007525   Thumb Code  1572  tcp_out.o(i.tcp_enqueue)
    tcp_fasttmr                              0x08007b69   Thumb Code   112  tcp.o(i.tcp_fasttmr)
    tcp_input                                0x08007bdd   Thumb Code  1574  tcp_in.o(i.tcp_input)
    tcp_keepalive                            0x08008225   Thumb Code   106  tcp_out.o(i.tcp_keepalive)
    tcp_next_iss                             0x080084cd   Thumb Code    20  tcp.o(i.tcp_next_iss)
    tcp_output                               0x080084e9   Thumb Code   622  tcp_out.o(i.tcp_output)
    tcp_pcb_purge                            0x080089c1   Thumb Code    54  tcp.o(i.tcp_pcb_purge)
    tcp_pcb_remove                           0x080089f9   Thumb Code   198  tcp.o(i.tcp_pcb_remove)
    tcp_rexmit                               0x08009acd   Thumb Code    86  tcp_out.o(i.tcp_rexmit)
    tcp_rexmit_rto                           0x08009b23   Thumb Code    58  tcp_out.o(i.tcp_rexmit_rto)
    tcp_rst                                  0x08009b5d   Thumb Code   188  tcp_out.o(i.tcp_rst)
    tcp_seg_free                             0x08009c91   Thumb Code    32  tcp.o(i.tcp_seg_free)
    tcp_segs_free                            0x08009cb1   Thumb Code    30  tcp.o(i.tcp_segs_free)
    tcp_send_ctrl                            0x08009ccf   Thumb Code    28  tcp_out.o(i.tcp_send_ctrl)
    tcp_slowtmr                              0x08009ced   Thumb Code   896  tcp.o(i.tcp_slowtmr)
    tcp_timer_needed                         0x0800a229   Thumb Code    38  tcpip.o(i.tcp_timer_needed)
    tcp_tmr                                  0x0800a2b1   Thumb Code    30  tcp.o(i.tcp_tmr)
    tcp_update_rcv_ann_wnd                   0x0800a2d5   Thumb Code    56  tcp.o(i.tcp_update_rcv_ann_wnd)
    tcp_zero_window_probe                    0x0800a30d   Thumb Code   116  tcp_out.o(i.tcp_zero_window_probe)
    tcpip_init                               0x0800a3f9   Thumb Code    46  tcpip.o(i.tcpip_init)
    tcpip_input                              0x0800a449   Thumb Code    72  tcpip.o(i.tcpip_input)
    udp_input                                0x0800a599   Thumb Code   436  udp.o(i.udp_input)
    OSUnMapTbl                               0x0800a934   Data         256  os_core.o(.constdata)
    OSDebugEn                                0x0800aa34   Data           2  os_dbg.o(.constdata)
    OSEndiannessTest                         0x0800aa38   Data           4  os_dbg.o(.constdata)
    OSEventMax                               0x0800aa3c   Data           2  os_dbg.o(.constdata)
    OSEventNameSize                          0x0800aa3e   Data           2  os_dbg.o(.constdata)
    OSEventEn                                0x0800aa40   Data           2  os_dbg.o(.constdata)
    OSEventSize                              0x0800aa42   Data           2  os_dbg.o(.constdata)
    OSEventTblSize                           0x0800aa44   Data           2  os_dbg.o(.constdata)
    OSFlagEn                                 0x0800aa46   Data           2  os_dbg.o(.constdata)
    OSFlagGrpSize                            0x0800aa48   Data           2  os_dbg.o(.constdata)
    OSFlagNodeSize                           0x0800aa4a   Data           2  os_dbg.o(.constdata)
    OSFlagWidth                              0x0800aa4c   Data           2  os_dbg.o(.constdata)
    OSFlagMax                                0x0800aa4e   Data           2  os_dbg.o(.constdata)
    OSFlagNameSize                           0x0800aa50   Data           2  os_dbg.o(.constdata)
    OSLowestPrio                             0x0800aa52   Data           2  os_dbg.o(.constdata)
    OSMboxEn                                 0x0800aa54   Data           2  os_dbg.o(.constdata)
    OSMemEn                                  0x0800aa56   Data           2  os_dbg.o(.constdata)
    OSMemMax                                 0x0800aa58   Data           2  os_dbg.o(.constdata)
    OSMemNameSize                            0x0800aa5a   Data           2  os_dbg.o(.constdata)
    OSMemSize                                0x0800aa5c   Data           2  os_dbg.o(.constdata)
    OSMemTblSize                             0x0800aa5e   Data           2  os_dbg.o(.constdata)
    OSMutexEn                                0x0800aa60   Data           2  os_dbg.o(.constdata)
    OSPtrSize                                0x0800aa62   Data           2  os_dbg.o(.constdata)
    OSQEn                                    0x0800aa64   Data           2  os_dbg.o(.constdata)
    OSQMax                                   0x0800aa66   Data           2  os_dbg.o(.constdata)
    OSQSize                                  0x0800aa68   Data           2  os_dbg.o(.constdata)
    OSRdyTblSize                             0x0800aa6a   Data           2  os_dbg.o(.constdata)
    OSSemEn                                  0x0800aa6c   Data           2  os_dbg.o(.constdata)
    OSStkWidth                               0x0800aa6e   Data           2  os_dbg.o(.constdata)
    OSTaskCreateEn                           0x0800aa70   Data           2  os_dbg.o(.constdata)
    OSTaskCreateExtEn                        0x0800aa72   Data           2  os_dbg.o(.constdata)
    OSTaskDelEn                              0x0800aa74   Data           2  os_dbg.o(.constdata)
    OSTaskIdleStkSize                        0x0800aa76   Data           2  os_dbg.o(.constdata)
    OSTaskProfileEn                          0x0800aa78   Data           2  os_dbg.o(.constdata)
    OSTaskMax                                0x0800aa7a   Data           2  os_dbg.o(.constdata)
    OSTaskNameSize                           0x0800aa7c   Data           2  os_dbg.o(.constdata)
    OSTaskStatEn                             0x0800aa7e   Data           2  os_dbg.o(.constdata)
    OSTaskStatStkSize                        0x0800aa80   Data           2  os_dbg.o(.constdata)
    OSTaskStatStkChkEn                       0x0800aa82   Data           2  os_dbg.o(.constdata)
    OSTaskSwHookEn                           0x0800aa84   Data           2  os_dbg.o(.constdata)
    OSTCBPrioTblMax                          0x0800aa86   Data           2  os_dbg.o(.constdata)
    OSTCBSize                                0x0800aa88   Data           2  os_dbg.o(.constdata)
    OSTicksPerSec                            0x0800aa8a   Data           2  os_dbg.o(.constdata)
    OSTimeTickHookEn                         0x0800aa8c   Data           2  os_dbg.o(.constdata)
    OSVersionNbr                             0x0800aa8e   Data           2  os_dbg.o(.constdata)
    OSDataSize                               0x0800aa90   Data           2  os_dbg.o(.constdata)
    pvNullPointer                            0x0800aa94   Data           4  sys_arch.o(.constdata)
    tcp_backoff                              0x0800aac8   Data          13  tcp.o(.constdata)
    tcp_persist_backoff                      0x0800aad5   Data           7  tcp.o(.constdata)
    ethbroadcast                             0x0800ab30   Data           6  etharp.o(.constdata)
    ethzero                                  0x0800ab36   Data           6  etharp.o(.constdata)
    Region$$Table$$Base                      0x0800ab80   Number         0  anon$$obj.o(Region$$Table)
    Region$$Table$$Limit                     0x0800aba0   Number         0  anon$$obj.o(Region$$Table)
    SystemCoreClock                          0x20000014   Data           4  system_stm32f10x.o(.data)
    AHBPrescTable                            0x20000018   Data          16  system_stm32f10x.o(.data)
    DMATxDescToSet                           0x20000028   Data           4  stm32_eth.o(.data)
    DMARxDescToGet                           0x2000002c   Data           4  stm32_eth.o(.data)
    DMAPTPTxDescToSet                        0x20000030   Data           4  stm32_eth.o(.data)
    DMAPTPRxDescToGet                        0x20000034   Data           4  stm32_eth.o(.data)
    OSCtxSwCtr                               0x20000038   Data           4  os_core.o(.data)
    OSEventFreeList                          0x2000003c   Data           4  os_core.o(.data)
    OSCPUUsage                               0x20000040   Data           1  os_core.o(.data)
    OSIdleCtrMax                             0x20000044   Data           4  os_core.o(.data)
    OSIdleCtrRun                             0x20000048   Data           4  os_core.o(.data)
    OSStatRdy                                0x2000004c   Data           1  os_core.o(.data)
    OSIntNesting                             0x2000004d   Data           1  os_core.o(.data)
    OSLockNesting                            0x2000004e   Data           1  os_core.o(.data)
    OSPrioCur                                0x2000004f   Data           1  os_core.o(.data)
    OSPrioHighRdy                            0x20000050   Data           1  os_core.o(.data)
    OSRdyGrp                                 0x20000051   Data           1  os_core.o(.data)
    OSRdyTbl                                 0x20000052   Data           4  os_core.o(.data)
    OSRunning                                0x20000056   Data           1  os_core.o(.data)
    OSTaskCtr                                0x20000057   Data           1  os_core.o(.data)
    OSIdleCtr                                0x20000058   Data           4  os_core.o(.data)
    OSTCBCur                                 0x2000005c   Data           4  os_core.o(.data)
    OSTCBFreeList                            0x20000060   Data           4  os_core.o(.data)
    OSTCBHighRdy                             0x20000064   Data           4  os_core.o(.data)
    OSTCBList                                0x20000068   Data           4  os_core.o(.data)
    OSTickStepState                          0x2000006c   Data           1  os_core.o(.data)
    OSMemFreeList                            0x20000070   Data           4  os_core.o(.data)
    OSQFreeList                              0x20000074   Data           4  os_core.o(.data)
    OSTime                                   0x20000078   Data           4  os_core.o(.data)
    DMATxDesc                                0x2000007c   Data           4  ethernetif.o(.data)
    tcp_end_time                             0x20000080   Data           4  ethernetif.o(.data)
    arp_end_time                             0x20000084   Data           4  ethernetif.o(.data)
    MACaddr                                  0x20000088   Data           6  ethernetif.o(.data)
    null_timeouts                            0x20000094   Data           4  sys_arch.o(.data)
    netif_list                               0x200000bc   Data           4  netif.o(.data)
    netif_default                            0x200000c0   Data           4  netif.o(.data)
    tcp_ticks                                0x200000d0   Data           4  tcp.o(.data)
    tcp_bound_pcbs                           0x200000d4   Data           4  tcp.o(.data)
    tcp_listen_pcbs                          0x200000d8   Data           4  tcp.o(.data)
    tcp_active_pcbs                          0x200000dc   Data           4  tcp.o(.data)
    tcp_tw_pcbs                              0x200000e0   Data           4  tcp.o(.data)
    tcp_tmp_pcb                              0x200000e4   Data           4  tcp.o(.data)
    tcp_input_pcb                            0x20000108   Data           4  tcp_in.o(.data)
    udp_pcbs                                 0x2000010c   Data           4  udp.o(.data)
    __stdout                                 0x20000124   Data           4  stdout.o(.data)
    OSEventTbl                               0x20000758   Data         320  os_core.o(.bss)
    OSTaskStatStk                            0x20000898   Data         512  os_core.o(.bss)
    OSTaskIdleStk                            0x20000a98   Data         512  os_core.o(.bss)
    OSTCBPrioTbl                             0x20000c98   Data         128  os_core.o(.bss)
    OSTCBTbl                                 0x20000d18   Data        1848  os_core.o(.bss)
    OSMemTbl                                 0x20001450   Data         180  os_core.o(.bss)
    OSQTbl                                   0x20001504   Data          96  os_core.o(.bss)
    DMARxDscrTab                             0x20001564   Data          64  ethernetif.o(.bss)
    DMATxDscrTab                             0x200015a4   Data          32  ethernetif.o(.bss)
    Rx_Buff                                  0x200015c4   Data        6080  ethernetif.o(.bss)
    Tx_Buff                                  0x20002d84   Data        3040  ethernetif.o(.bss)
    LWIP_TASK_STK                            0x20003964   Data        3600  sys_arch.o(.bss)
    lwip_timeouts                            0x20004ac0   Data          12  sys_arch.o(.bss)
    __initial_sp                             0x2000ede8   Data           0  startup_stm32f10x_cl.o(STACK)



==============================================================================

Memory Map of the image

  Image Entry point : 0x08000151

  Load Region LR_IROM1 (Base: 0x08000000, Size: 0x0000acc8, Max: 0x00040000, ABSOLUTE)

    Execution Region ER_IROM1 (Base: 0x08000000, Size: 0x0000aba0, Max: 0x00040000, ABSOLUTE)

    Base Addr    Size         Type   Attr      Idx    E Section Name        Object

    0x08000000   0x00000150   Data   RO         4303    RESET               startup_stm32f10x_cl.o
    0x08000150   0x00000000   Code   RO         6411  * .ARM.Collect$$$$00000000  mc_w.l(entry.o)
    0x08000150   0x00000004   Code   RO         6681    .ARM.Collect$$$$00000001  mc_w.l(entry2.o)
    0x08000154   0x00000004   Code   RO         6684    .ARM.Collect$$$$00000004  mc_w.l(entry5.o)
    0x08000158   0x00000000   Code   RO         6686    .ARM.Collect$$$$00000008  mc_w.l(entry7b.o)
    0x08000158   0x00000008   Code   RO         6687    .ARM.Collect$$$$00000009  mc_w.l(entry8.o)
    0x08000160   0x00000004   Code   RO         6682    .ARM.Collect$$$$00002712  mc_w.l(entry2.o)
    0x08000164   0x00000024   Code   RO         4304    .text               startup_stm32f10x_cl.o
    0x08000188   0x000000a4   Code   RO         4961    .text               os_cpu_a.o
    0x0800022c   0x00000024   Code   RO         6414    .text               mc_w.l(memcpya.o)
    0x08000250   0x00000024   Code   RO         6416    .text               mc_w.l(memseta.o)
    0x08000274   0x0000002c   Code   RO         6689    .text               mc_w.l(uidiv.o)
    0x080002a0   0x00000024   Code   RO         6704    .text               mc_w.l(init.o)
    0x080002c4   0x00000002   Code   RO          306    i.ADC1_2_IRQHandler  stm32f10x_it.o
    0x080002c6   0x00000002   PAD
    0x080002c8   0x00000048   Code   RO          216    i.App_TaskCreate    app.o
    0x08000310   0x00000048   Code   RO            1    i.App_TaskStart     main.o
    0x08000358   0x00000014   Code   RO          217    i.App_TaskToggleLED  app.o
    0x0800036c   0x00000016   Code   RO          218    i.App_TaskToggleLED1  app.o
    0x08000382   0x00000002   PAD
    0x08000384   0x00000120   Code   RO          240    i.BSP_EthernetInit  bsp.o
    0x080004a4   0x00000018   Code   RO          241    i.BSP_Init          bsp.o
    0x080004bc   0x00000010   Code   RO          242    i.BSP_Led1Toggle    bsp.o
    0x080004cc   0x00000034   Code   RO          243    i.BSP_LedInit       bsp.o
    0x08000500   0x00000010   Code   RO          244    i.BSP_LedToggle     bsp.o
    0x08000510   0x00000034   Code   RO          245    i.BSP_NVICConfiguration  bsp.o
    0x08000544   0x0000009c   Code   RO          246    i.BSP_UsartInit     bsp.o
    0x080005e0   0x00000004   Code   RO          307    i.BusFault_Handler  stm32f10x_it.o
    0x080005e4   0x00000002   Code   RO          308    i.CAN1_RX1_IRQHandler  stm32f10x_it.o
    0x080005e6   0x00000002   Code   RO          309    i.CAN1_SCE_IRQHandler  stm32f10x_it.o
    0x080005e8   0x00000002   Code   RO          310    i.DMA1_Channel1_IRQHandler  stm32f10x_it.o
    0x080005ea   0x00000002   Code   RO          311    i.DMA1_Channel2_IRQHandler  stm32f10x_it.o
    0x080005ec   0x00000002   Code   RO          312    i.DMA1_Channel3_IRQHandler  stm32f10x_it.o
    0x080005ee   0x00000002   Code   RO          313    i.DMA1_Channel4_IRQHandler  stm32f10x_it.o
    0x080005f0   0x00000002   Code   RO          314    i.DMA1_Channel5_IRQHandler  stm32f10x_it.o
    0x080005f2   0x00000002   Code   RO          315    i.DMA1_Channel6_IRQHandler  stm32f10x_it.o
    0x080005f4   0x00000002   Code   RO          316    i.DMA1_Channel7_IRQHandler  stm32f10x_it.o
    0x080005f6   0x00000002   Code   RO          317    i.DebugMon_Handler  stm32f10x_it.o
    0x080005f8   0x0000000c   Code   RO         3695    i.ETH_DMAClearITPendingBit  stm32_eth.o
    0x08000604   0x00000020   Code   RO         3696    i.ETH_DMAITConfig   stm32_eth.o
    0x08000624   0x00000024   Code   RO         3699    i.ETH_DMAReceptionCmd  stm32_eth.o
    0x08000648   0x00000054   Code   RO         3700    i.ETH_DMARxDescChainInit  stm32_eth.o
    0x0800069c   0x00000016   Code   RO         3702    i.ETH_DMARxDescReceiveITConfig  stm32_eth.o
    0x080006b2   0x00000002   PAD
    0x080006b4   0x00000024   Code   RO         3705    i.ETH_DMATransmissionCmd  stm32_eth.o
    0x080006d8   0x00000050   Code   RO         3708    i.ETH_DMATxDescChainInit  stm32_eth.o
    0x08000728   0x00000008   Code   RO         3709    i.ETH_DMATxDescChecksumInsertionConfig  stm32_eth.o
    0x08000730   0x00000016   Code   RO         3717    i.ETH_DeInit        stm32_eth.o
    0x08000746   0x0000000e   Code   RO         3718    i.ETH_Delay         stm32_eth.o
    0x08000754   0x00000014   Code   RO         3723    i.ETH_FlushTransmitFIFO  stm32_eth.o
    0x08000768   0x0000000c   Code   RO         4964    i.ETH_GetCurrentTxBuffer  ethernetif.o
    0x08000774   0x0000000a   Code   RO         3734    i.ETH_GetDMARxDescFrameLength  stm32_eth.o
    0x0800077e   0x00000002   PAD
    0x08000780   0x00000048   Code   RO         3749    i.ETH_GetRxPktSize  stm32_eth.o
    0x080007c8   0x00000018   Code   RO         3750    i.ETH_GetSoftwareResetStatus  stm32_eth.o
    0x080007e0   0x00000020   Code   RO          318    i.ETH_IRQHandler    stm32f10x_it.o
    0x08000800   0x00000250   Code   RO         3757    i.ETH_Init          stm32_eth.o
    0x08000a50   0x00000034   Code   RO         3760    i.ETH_MACAddressConfig  stm32_eth.o
    0x08000a84   0x00000024   Code   RO         3765    i.ETH_MACReceptionCmd  stm32_eth.o
    0x08000aa8   0x00000024   Code   RO         3766    i.ETH_MACTransmissionCmd  stm32_eth.o
    0x08000acc   0x00000060   Code   RO         3777    i.ETH_ReadPHYRegister  stm32_eth.o
    0x08000b2c   0x0000009c   Code   RO         4965    i.ETH_RxPkt_ChainMode  ethernetif.o
    0x08000bc8   0x00000014   Code   RO         3788    i.ETH_SoftwareReset  stm32_eth.o
    0x08000bdc   0x00000020   Code   RO         3789    i.ETH_Start         stm32_eth.o
    0x08000bfc   0x000000a4   Code   RO         3790    i.ETH_StructInit    stm32_eth.o
    0x08000ca0   0x00000068   Code   RO         4966    i.ETH_TxPkt_ChainMode  ethernetif.o
    0x08000d08   0x00000060   Code   RO         3792    i.ETH_WritePHYRegister  stm32_eth.o
    0x08000d68   0x00000002   Code   RO          319    i.EXTI0_IRQHandler  stm32f10x_it.o
    0x08000d6a   0x00000002   Code   RO          320    i.EXTI15_10_IRQHandler  stm32f10x_it.o
    0x08000d6c   0x00000002   Code   RO          321    i.EXTI1_IRQHandler  stm32f10x_it.o
    0x08000d6e   0x00000002   Code   RO          322    i.EXTI2_IRQHandler  stm32f10x_it.o
    0x08000d70   0x00000002   Code   RO          323    i.EXTI3_IRQHandler  stm32f10x_it.o
    0x08000d72   0x00000002   Code   RO          324    i.EXTI4_IRQHandler  stm32f10x_it.o
    0x08000d74   0x00000002   Code   RO          325    i.EXTI9_5_IRQHandler  stm32f10x_it.o
    0x08000d76   0x00000002   PAD
    0x08000d78   0x000000a0   Code   RO          247    i.Ethernet_Configuration  bsp.o
    0x08000e18   0x00000002   Code   RO          326    i.FLASH_IRQHandler  stm32f10x_it.o
    0x08000e1a   0x00000002   PAD
    0x08000e1c   0x0000000c   Code   RO         1761    i.GPIO_ETH_MediaInterfaceConfig  stm32f10x_gpio.o
    0x08000e28   0x00000112   Code   RO         1765    i.GPIO_Init         stm32f10x_gpio.o
    0x08000f3a   0x00000002   PAD
    0x08000f3c   0x00000090   Code   RO         1767    i.GPIO_PinRemapConfig  stm32f10x_gpio.o
    0x08000fcc   0x00000004   Code   RO         1773    i.GPIO_SetBits      stm32f10x_gpio.o
    0x08000fd0   0x00000004   Code   RO          327    i.HardFault_Handler  stm32f10x_it.o
    0x08000fd4   0x00000002   Code   RO          328    i.I2C1_ER_IRQHandler  stm32f10x_it.o
    0x08000fd6   0x00000002   Code   RO          329    i.I2C1_EV_IRQHandler  stm32f10x_it.o
    0x08000fd8   0x00000002   Code   RO          330    i.I2C2_ER_IRQHandler  stm32f10x_it.o
    0x08000fda   0x00000002   Code   RO          331    i.I2C2_EV_IRQHandler  stm32f10x_it.o
    0x08000fdc   0x000000dc   Code   RO           86    i.Init_LwIP         lwip.o
    0x080010b8   0x00000010   Code   RO           87    i.LwIP_Pkt_Handle   lwip.o
    0x080010c8   0x00000004   Code   RO          332    i.MemManage_Handler  stm32f10x_it.o
    0x080010cc   0x00000002   Code   RO          333    i.NMI_Handler       stm32f10x_it.o
    0x080010ce   0x00000002   PAD
    0x080010d0   0x00000074   Code   RO          674    i.NVIC_Init         misc.o
    0x08001144   0x00000014   Code   RO          675    i.NVIC_PriorityGroupConfig  misc.o
    0x08001158   0x00000014   Code   RO          676    i.NVIC_SetVectorTable  misc.o
    0x0800116c   0x00000114   Code   RO         4586    i.OSDebugInit       os_dbg.o
    0x08001280   0x00000030   Code   RO         4310    i.OSInit            os_core.o
    0x080012b0   0x00000002   Code   RO         4507    i.OSInitHookBegin   os_cpu_c.o
    0x080012b2   0x00000002   Code   RO         4508    i.OSInitHookEnd     os_cpu_c.o
    0x080012b4   0x00000090   Code   RO         4312    i.OSIntExit         os_core.o
    0x08001344   0x000000ac   Code   RO         4661    i.OSMemCreate       os_mem.o
    0x080013f0   0x0000004e   Code   RO         4662    i.OSMemGet          os_mem.o
    0x0800143e   0x00000042   Code   RO         4665    i.OSMemPut          os_mem.o
    0x08001480   0x000000a4   Code   RO         4716    i.OSQCreate         os_q.o
    0x08001524   0x00000134   Code   RO         4719    i.OSQPend           os_q.o
    0x08001658   0x00000078   Code   RO         4721    i.OSQPost           os_q.o
    0x080016d0   0x00000058   Code   RO         4788    i.OSSemCreate       os_sem.o
    0x08001728   0x000000f4   Code   RO         4789    i.OSSemDel          os_sem.o
    0x0800181c   0x000000fc   Code   RO         4790    i.OSSemPend         os_sem.o
    0x08001918   0x0000005e   Code   RO         4792    i.OSSemPost         os_sem.o
    0x08001976   0x00000002   PAD
    0x08001978   0x00000048   Code   RO         4315    i.OSStart           os_core.o
    0x080019c0   0x00000002   Code   RO         4509    i.OSTCBInitHook     os_cpu_c.o
    0x080019c2   0x00000002   PAD
    0x080019c4   0x000000ac   Code   RO         4842    i.OSTaskCreate      os_task.o
    0x08001a70   0x000000c0   Code   RO         4843    i.OSTaskCreateExt   os_task.o
    0x08001b30   0x00000002   Code   RO         4510    i.OSTaskCreateHook  os_cpu_c.o
    0x08001b32   0x00000002   PAD
    0x08001b34   0x00000158   Code   RO         4844    i.OSTaskDel         os_task.o
    0x08001c8c   0x00000002   Code   RO         4511    i.OSTaskDelHook     os_cpu_c.o
    0x08001c8e   0x00000002   Code   RO         4512    i.OSTaskIdleHook    os_cpu_c.o
    0x08001c90   0x000000ac   Code   RO         4847    i.OSTaskNameSet     os_task.o
    0x08001d3c   0x0000006c   Code   RO         4848    i.OSTaskQuery       os_task.o
    0x08001da8   0x00000002   Code   RO         4513    i.OSTaskStatHook    os_cpu_c.o
    0x08001daa   0x00000002   PAD
    0x08001dac   0x000000a0   Code   RO         4850    i.OSTaskStkChk      os_task.o
    0x08001e4c   0x0000009a   Code   RO         4514    i.OSTaskStkInit     os_cpu_c.o
    0x08001ee6   0x00000002   PAD
    0x08001ee8   0x000000bc   Code   RO         4851    i.OSTaskSuspend     os_task.o
    0x08001fa4   0x00000002   Code   RO         4515    i.OSTaskSwHook      os_cpu_c.o
    0x08001fa6   0x00000002   PAD
    0x08001fa8   0x00000070   Code   RO         4919    i.OSTimeDly         os_time.o
    0x08002018   0x000000a4   Code   RO         4920    i.OSTimeDlyHMSM     os_time.o
    0x080020bc   0x0000001c   Code   RO         4922    i.OSTimeGet         os_time.o
    0x080020d8   0x000000f4   Code   RO         4317    i.OSTimeTick        os_core.o
    0x080021cc   0x00000002   Code   RO         4516    i.OSTimeTickHook    os_cpu_c.o
    0x080021ce   0x00000002   Code   RO         4319    i.OS_Dummy          os_core.o
    0x080021d0   0x00000088   Code   RO         4320    i.OS_EventTaskRdy   os_core.o
    0x08002258   0x0000002a   Code   RO         4321    i.OS_EventTaskRemove  os_core.o
    0x08002282   0x00000002   PAD
    0x08002284   0x0000007c   Code   RO         4322    i.OS_EventTaskWait  os_core.o
    0x08002300   0x0000001c   Code   RO         4323    i.OS_EventWaitListInit  os_core.o
    0x0800231c   0x00000050   Code   RO         4324    i.OS_InitEventList  os_core.o
    0x0800236c   0x00000054   Code   RO         4325    i.OS_InitMisc       os_core.o
    0x080023c0   0x00000048   Code   RO         4326    i.OS_InitRdyList    os_core.o
    0x08002408   0x00000068   Code   RO         4327    i.OS_InitTCBList    os_core.o
    0x08002470   0x00000050   Code   RO         4328    i.OS_InitTaskIdle   os_core.o
    0x080024c0   0x00000050   Code   RO         4329    i.OS_InitTaskStat   os_core.o
    0x08002510   0x00000012   Code   RO         4330    i.OS_MemClr         os_core.o
    0x08002522   0x00000014   Code   RO         4331    i.OS_MemCopy        os_core.o
    0x08002536   0x00000002   PAD
    0x08002538   0x0000004c   Code   RO         4667    i.OS_MemInit        os_mem.o
    0x08002584   0x00000038   Code   RO         4725    i.OS_QInit          os_q.o
    0x080025bc   0x00000074   Code   RO         4332    i.OS_Sched          os_core.o
    0x08002630   0x0000002c   Code   RO         4333    i.OS_SchedNew       os_core.o
    0x0800265c   0x0000001c   Code   RO         4334    i.OS_StrCopy        os_core.o
    0x08002678   0x00000014   Code   RO         4335    i.OS_StrLen         os_core.o
    0x0800268c   0x0000012c   Code   RO         4336    i.OS_TCBInit        os_core.o
    0x080027b8   0x00000024   Code   RO         4337    i.OS_TaskIdle       os_core.o
    0x080027dc   0x00000088   Code   RO         4338    i.OS_TaskStat       os_core.o
    0x08002864   0x0000003c   Code   RO         4339    i.OS_TaskStatStkChk  os_core.o
    0x080028a0   0x0000001a   Code   RO         4852    i.OS_TaskStkClr     os_task.o
    0x080028ba   0x00000002   Code   RO          334    i.PVD_IRQHandler    stm32f10x_it.o
    0x080028bc   0x00000020   Code   RO         2189    i.RCC_AHBPeriphClockCmd  stm32f10x_rcc.o
    0x080028dc   0x00000020   Code   RO         2190    i.RCC_AHBPeriphResetCmd  stm32f10x_rcc.o
    0x080028fc   0x00000020   Code   RO         2193    i.RCC_APB2PeriphClockCmd  stm32f10x_rcc.o
    0x0800291c   0x00000190   Code   RO         2201    i.RCC_GetClocksFreq  stm32f10x_rcc.o
    0x08002aac   0x0000003c   Code   RO         2202    i.RCC_GetFlagStatus  stm32f10x_rcc.o
    0x08002ae8   0x00000002   Code   RO          335    i.RCC_IRQHandler    stm32f10x_it.o
    0x08002aea   0x00000002   PAD
    0x08002aec   0x0000000c   Code   RO         2213    i.RCC_MCOConfig     stm32f10x_rcc.o
    0x08002af8   0x0000000c   Code   RO         2219    i.RCC_PLL3Cmd       stm32f10x_rcc.o
    0x08002b04   0x00000018   Code   RO         2220    i.RCC_PLL3Config    stm32f10x_rcc.o
    0x08002b1c   0x00000002   Code   RO          336    i.RTCAlarm_IRQHandler  stm32f10x_it.o
    0x08002b1e   0x00000002   Code   RO          337    i.RTC_IRQHandler    stm32f10x_it.o
    0x08002b20   0x00000002   Code   RO          338    i.SPI1_IRQHandler   stm32f10x_it.o
    0x08002b22   0x00000002   Code   RO          339    i.SPI2_IRQHandler   stm32f10x_it.o
    0x08002b24   0x00000002   Code   RO          340    i.SVC_Handler       stm32f10x_it.o
    0x08002b26   0x00000008   Code   RO         3659    i.SetSysClock       system_stm32f10x.o
    0x08002b2e   0x00000002   PAD
    0x08002b30   0x00000100   Code   RO         3660    i.SetSysClockTo72   system_stm32f10x.o
    0x08002c30   0x0000002c   Code   RO         4967    i.Set_MAC_Address   ethernetif.o
    0x08002c5c   0x00000028   Code   RO          341    i.SysTick_Handler   stm32f10x_it.o
    0x08002c84   0x00000060   Code   RO          248    i.SysTick_Init      bsp.o
    0x08002ce4   0x0000006c   Code   RO         3662    i.SystemInit        system_stm32f10x.o
    0x08002d50   0x00000002   Code   RO          342    i.TAMPER_IRQHandler  stm32f10x_it.o
    0x08002d52   0x00000002   Code   RO          343    i.TIM1_BRK_IRQHandler  stm32f10x_it.o
    0x08002d54   0x00000002   Code   RO          344    i.TIM1_CC_IRQHandler  stm32f10x_it.o
    0x08002d56   0x00000002   Code   RO          345    i.TIM1_TRG_COM_IRQHandler  stm32f10x_it.o
    0x08002d58   0x00000002   Code   RO          346    i.TIM1_UP_IRQHandler  stm32f10x_it.o
    0x08002d5a   0x00000002   Code   RO          347    i.TIM2_IRQHandler   stm32f10x_it.o
    0x08002d5c   0x00000002   Code   RO          348    i.TIM3_IRQHandler   stm32f10x_it.o
    0x08002d5e   0x00000002   Code   RO          349    i.TIM4_IRQHandler   stm32f10x_it.o
    0x08002d60   0x0000000e   Code   RO           88    i.TcpipInitDone     lwip.o
    0x08002d6e   0x00000002   Code   RO          350    i.USART1_IRQHandler  stm32f10x_it.o
    0x08002d70   0x00000002   Code   RO          351    i.USART2_IRQHandler  stm32f10x_it.o
    0x08002d72   0x00000002   Code   RO          352    i.USART3_IRQHandler  stm32f10x_it.o
    0x08002d74   0x00000022   Code   RO         3424    i.USART_ClockInit   stm32f10x_usart.o
    0x08002d96   0x00000018   Code   RO         3426    i.USART_Cmd         stm32f10x_usart.o
    0x08002dae   0x00000002   PAD
    0x08002db0   0x000000d8   Code   RO         3433    i.USART_Init        stm32f10x_usart.o
    0x08002e88   0x00000008   Code   RO         3443    i.USART_SendData    stm32f10x_usart.o
    0x08002e90   0x00000004   Code   RO          356    i.UsageFault_Handler  stm32f10x_it.o
    0x08002e94   0x00000002   Code   RO          357    i.WWDG_IRQHandler   stm32f10x_it.o
    0x08002e96   0x00000002   PAD
    0x08002e98   0x00000020   Code   RO         6509    i.__0printf$3       mc_w.l(printf3.o)
    0x08002eb8   0x0000000e   Code   RO         6716    i.__scatterload_copy  mc_w.l(handlers.o)
    0x08002ec6   0x00000002   Code   RO         6717    i.__scatterload_null  mc_w.l(handlers.o)
    0x08002ec8   0x0000000e   Code   RO         6718    i.__scatterload_zeroinit  mc_w.l(handlers.o)
    0x08002ed6   0x00000002   PAD
    0x08002ed8   0x000001b8   Code   RO         6516    i._printf_core      mc_w.l(printf3.o)
    0x08003090   0x0000001c   Code   RO         5169    i.arp_timer         tcpip.o
    0x080030ac   0x000001ac   Code   RO         6273    i.etharp_arp_input  etharp.o
    0x08003258   0x000000a0   Code   RO         6275    i.etharp_ip_input   etharp.o
    0x080032f8   0x000000cc   Code   RO         6276    i.etharp_output     etharp.o
    0x080033c4   0x00000260   Code   RO         6277    i.etharp_query      etharp.o
    0x08003624   0x00000168   Code   RO         6278    i.etharp_raw        etharp.o
    0x0800378c   0x0000002c   Code   RO         6279    i.etharp_request    etharp.o
    0x080037b8   0x000000a8   Code   RO         6280    i.etharp_send_ip    etharp.o
    0x08003860   0x000000a0   Code   RO         6281    i.etharp_tmr        etharp.o
    0x08003900   0x000000e8   Code   RO         6282    i.ethernet_input    etharp.o
    0x080039e8   0x000000b4   Code   RO         4968    i.ethernetif_init   ethernetif.o
    0x08003a9c   0x0000002c   Code   RO         4969    i.ethernetif_input  ethernetif.o
    0x08003ac8   0x00000294   Code   RO         6283    i.find_entry        etharp.o
    0x08003d5c   0x00000024   Code   RO          249    i.fputc             bsp.o
    0x08003d80   0x000000d8   Code   RO         6284    i.free_etharp_q     etharp.o
    0x08003e58   0x0000001a   Code   RO         6070    i.htonl             inet.o
    0x08003e72   0x0000000c   Code   RO         6071    i.htons             inet.o
    0x08003e7e   0x00000012   Code   RO         6035    i.icmp_dest_unreach  icmp.o
    0x08003e90   0x00000318   Code   RO         6036    i.icmp_input        icmp.o
    0x080041a8   0x000000fc   Code   RO         6037    i.icmp_send_response  icmp.o
    0x080042a4   0x00000012   Code   RO         6038    i.icmp_time_exceeded  icmp.o
    0x080042b6   0x00000014   Code   RO         6119    i.inet_chksum       inet_chksum.o
    0x080042ca   0x00000056   Code   RO         6120    i.inet_chksum_pbuf  inet_chksum.o
    0x08004320   0x0000004e   Code   RO         6199    i.ip_addr_isbroadcast  ip_addr.o
    0x0800436e   0x00000002   PAD
    0x08004370   0x0000014c   Code   RO         6221    i.ip_frag           ip_frag.o
    0x080044bc   0x0000019c   Code   RO         6157    i.ip_input          ip.o
    0x08004658   0x00000034   Code   RO         6158    i.ip_output         ip.o
    0x0800468c   0x00000188   Code   RO         6159    i.ip_output_if      ip.o
    0x08004814   0x00000198   Code   RO         6222    i.ip_reass          ip_frag.o
    0x080049ac   0x00000308   Code   RO         6223    i.ip_reass_chain_frag_into_datagram_and_validate  ip_frag.o
    0x08004cb4   0x000000a8   Code   RO         6224    i.ip_reass_dequeue_datagram  ip_frag.o
    0x08004d5c   0x00000054   Code   RO         6225    i.ip_reass_enqueue_new_datagram  ip_frag.o
    0x08004db0   0x00000158   Code   RO         6226    i.ip_reass_free_complete_datagram  ip_frag.o
    0x08004f08   0x0000007c   Code   RO         6227    i.ip_reass_remove_oldest_datagram  ip_frag.o
    0x08004f84   0x0000001c   Code   RO         5170    i.ip_reass_timer    tcpip.o
    0x08004fa0   0x00000034   Code   RO         6228    i.ip_reass_tmr      ip_frag.o
    0x08004fd4   0x00000050   Code   RO         6160    i.ip_route          ip.o
    0x08005024   0x000000a4   Code   RO         4970    i.low_level_init    ethernetif.o
    0x080050c8   0x00000074   Code   RO         4971    i.low_level_input   ethernetif.o
    0x0800513c   0x00000034   Code   RO         4972    i.low_level_output  ethernetif.o
    0x08005170   0x00000010   Code   RO         5277    i.lwip_init         init.o
    0x08005180   0x0000004a   Code   RO         6122    i.lwip_standard_chksum  inet_chksum.o
    0x080051ca   0x00000002   PAD
    0x080051cc   0x0000003c   Code   RO            2    i.main              main.o
    0x08005208   0x0000014c   Code   RO         5302    i.mem_free          mem.o
    0x08005354   0x0000006c   Code   RO         5303    i.mem_init          mem.o
    0x080053c0   0x0000027c   Code   RO         5304    i.mem_malloc        mem.o
    0x0800563c   0x000001dc   Code   RO         5305    i.mem_realloc       mem.o
    0x08005818   0x000000a4   Code   RO         5345    i.memp_free         memp.o
    0x080058bc   0x00000064   Code   RO         5346    i.memp_init         memp.o
    0x08005920   0x000000e4   Code   RO         5347    i.memp_malloc       memp.o
    0x08005a04   0x00000068   Code   RO         5375    i.netif_add         netif.o
    0x08005a6c   0x0000000c   Code   RO         5377    i.netif_is_up       netif.o
    0x08005a78   0x00000028   Code   RO         5379    i.netif_set_addr    netif.o
    0x08005aa0   0x0000000c   Code   RO         5380    i.netif_set_default  netif.o
    0x08005aac   0x0000000c   Code   RO         5382    i.netif_set_gw      netif.o
    0x08005ab8   0x00000078   Code   RO         5383    i.netif_set_ipaddr  netif.o
    0x08005b30   0x0000000c   Code   RO         5384    i.netif_set_netmask  netif.o
    0x08005b3c   0x0000002c   Code   RO         5385    i.netif_set_up      netif.o
    0x08005b68   0x0000000c   Code   RO         6075    i.ntohl             inet.o
    0x08005b74   0x0000000c   Code   RO         6076    i.ntohs             inet.o
    0x08005b80   0x00000414   Code   RO         5453    i.pbuf_alloc        pbuf.o
    0x08005f94   0x0000013c   Code   RO         5454    i.pbuf_cat          pbuf.o
    0x080060d0   0x00000016   Code   RO         5455    i.pbuf_chain        pbuf.o
    0x080060e6   0x00000012   Code   RO         5456    i.pbuf_clen         pbuf.o
    0x080060f8   0x00000218   Code   RO         5458    i.pbuf_copy         pbuf.o
    0x08006310   0x00000140   Code   RO         5459    i.pbuf_copy_partial  pbuf.o
    0x08006450   0x00000144   Code   RO         5461    i.pbuf_free         pbuf.o
    0x08006594   0x00000140   Code   RO         5462    i.pbuf_header       pbuf.o
    0x080066d4   0x000001b8   Code   RO         5463    i.pbuf_realloc      pbuf.o
    0x0800688c   0x0000000a   Code   RO         5464    i.pbuf_ref          pbuf.o
    0x08006896   0x00000002   PAD
    0x08006898   0x000001a8   Code   RO         5306    i.plug_holes        mem.o
    0x08006a40   0x00000068   Code   RO         5542    i.raw_input         raw.o
    0x08006aa8   0x000000fc   Code   RO         5035    i.sys_arch_mbox_fetch  sys_arch.o
    0x08006ba4   0x00000070   Code   RO         5036    i.sys_arch_sem_wait  sys_arch.o
    0x08006c14   0x0000003c   Code   RO         5037    i.sys_arch_timeouts  sys_arch.o
    0x08006c50   0x000000a8   Code   RO         5038    i.sys_init          sys_arch.o
    0x08006cf8   0x0000007c   Code   RO         5603    i.sys_mbox_fetch    sys.o
    0x08006d74   0x000000d8   Code   RO         5040    i.sys_mbox_new      sys_arch.o
    0x08006e4c   0x00000024   Code   RO         5042    i.sys_mbox_trypost  sys_arch.o
    0x08006e70   0x0000007c   Code   RO         5043    i.sys_sem_free      sys_arch.o
    0x08006eec   0x0000007c   Code   RO         5044    i.sys_sem_new       sys_arch.o
    0x08006f68   0x0000000e   Code   RO         5045    i.sys_sem_signal    sys_arch.o
    0x08006f76   0x00000074   Code   RO         5605    i.sys_sem_wait      sys.o
    0x08006fea   0x00000002   PAD
    0x08006fec   0x00000080   Code   RO         5046    i.sys_thread_new    sys_arch.o
    0x0800706c   0x00000144   Code   RO         5607    i.sys_timeout       sys.o
    0x080071b0   0x000000dc   Code   RO         5608    i.sys_untimeout     sys.o
    0x0800728c   0x0000009c   Code   RO         5649    i.tcp_abandon       tcp.o
    0x08007328   0x000000c8   Code   RO         5652    i.tcp_alloc         tcp.o
    0x080073f0   0x00000104   Code   RO         5655    i.tcp_close         tcp.o
    0x080074f4   0x0000002e   Code   RO         5657    i.tcp_eff_send_mss  tcp.o
    0x08007522   0x00000002   PAD
    0x08007524   0x00000644   Code   RO         5886    i.tcp_enqueue       tcp_out.o
    0x08007b68   0x00000074   Code   RO         5659    i.tcp_fasttmr       tcp.o
    0x08007bdc   0x00000648   Code   RO         5838    i.tcp_input         tcp_in.o
    0x08008224   0x000000e4   Code   RO         5887    i.tcp_keepalive     tcp_out.o
    0x08008308   0x00000058   Code   RO         5660    i.tcp_kill_prio     tcp.o
    0x08008360   0x0000003c   Code   RO         5661    i.tcp_kill_timewait  tcp.o
    0x0800839c   0x00000130   Code   RO         5839    i.tcp_listen_input  tcp_in.o
    0x080084cc   0x0000001c   Code   RO         5665    i.tcp_next_iss      tcp.o
    0x080084e8   0x000002d4   Code   RO         5888    i.tcp_output        tcp_out.o
    0x080087bc   0x000000c8   Code   RO         5889    i.tcp_output_segment  tcp_out.o
    0x08008884   0x00000084   Code   RO         5890    i.tcp_output_set_header  tcp_out.o
    0x08008908   0x000000b8   Code   RO         5840    i.tcp_parseopt      tcp_in.o
    0x080089c0   0x00000036   Code   RO         5666    i.tcp_pcb_purge     tcp.o
    0x080089f6   0x00000002   PAD
    0x080089f8   0x00000144   Code   RO         5667    i.tcp_pcb_remove    tcp.o
    0x08008b3c   0x00000670   Code   RO         5841    i.tcp_process       tcp_in.o
    0x080091ac   0x000008f8   Code   RO         5842    i.tcp_receive       tcp_in.o
    0x08009aa4   0x00000028   Code   RO         5670    i.tcp_recv_null     tcp.o
    0x08009acc   0x00000056   Code   RO         5891    i.tcp_rexmit        tcp_out.o
    0x08009b22   0x0000003a   Code   RO         5892    i.tcp_rexmit_rto    tcp_out.o
    0x08009b5c   0x00000134   Code   RO         5893    i.tcp_rst           tcp_out.o
    0x08009c90   0x00000020   Code   RO         5672    i.tcp_seg_free      tcp.o
    0x08009cb0   0x0000001e   Code   RO         5673    i.tcp_segs_free     tcp.o
    0x08009cce   0x0000001c   Code   RO         5894    i.tcp_send_ctrl     tcp_out.o
    0x08009cea   0x00000002   PAD
    0x08009cec   0x0000053c   Code   RO         5676    i.tcp_slowtmr       tcp.o
    0x0800a228   0x00000038   Code   RO         5174    i.tcp_timer_needed  tcpip.o
    0x0800a260   0x00000050   Code   RO         5843    i.tcp_timewait_input  tcp_in.o
    0x0800a2b0   0x00000024   Code   RO         5677    i.tcp_tmr           tcp.o
    0x0800a2d4   0x00000038   Code   RO         5678    i.tcp_update_rcv_ann_wnd  tcp.o
    0x0800a30c   0x000000ec   Code   RO         5896    i.tcp_zero_window_probe  tcp_out.o
    0x0800a3f8   0x00000050   Code   RO         5176    i.tcpip_init        tcpip.o
    0x0800a448   0x0000004c   Code   RO         5177    i.tcpip_input       tcpip.o
    0x0800a494   0x00000038   Code   RO         5178    i.tcpip_tcp_timer   tcpip.o
    0x0800a4cc   0x000000cc   Code   RO         5179    i.tcpip_thread      tcpip.o
    0x0800a598   0x00000224   Code   RO         5960    i.udp_input         udp.o
    0x0800a7bc   0x00000178   Code   RO         6285    i.update_arp_entry  etharp.o
    0x0800a934   0x00000100   Data   RO         4341    .constdata          os_core.o
    0x0800aa34   0x0000005e   Data   RO         4587    .constdata          os_dbg.o
    0x0800aa92   0x00000002   PAD
    0x0800aa94   0x00000004   Data   RO         5048    .constdata          sys_arch.o
    0x0800aa98   0x00000030   Data   RO         5349    .constdata          memp.o
    0x0800aac8   0x00000014   Data   RO         5679    .constdata          tcp.o
    0x0800aadc   0x00000051   Data   RO         5897    .constdata          tcp_out.o
    0x0800ab2d   0x00000003   PAD
    0x0800ab30   0x00000050   Data   RO         6287    .constdata          etharp.o
    0x0800ab80   0x00000020   Data   RO         6714    Region$$Table       anon$$obj.o


    Execution Region RW_IRAM1 (Base: 0x20000000, Size: 0x0000ede8, Max: 0x00010000, ABSOLUTE)

    Base Addr    Size         Type   Attr      Idx    E Section Name        Object

    0x20000000   0x00000014   Data   RW         2229    .data               stm32f10x_rcc.o
    0x20000014   0x00000014   Data   RW         3663    .data               system_stm32f10x.o
    0x20000028   0x00000010   Data   RW         3793    .data               stm32_eth.o
    0x20000038   0x00000044   Data   RW         4342    .data               os_core.o
    0x2000007c   0x00000012   Data   RW         4974    .data               ethernetif.o
    0x2000008e   0x00000002   PAD
    0x20000090   0x00000008   Data   RW         5049    .data               sys_arch.o
    0x20000098   0x00000010   Data   RW         5182    .data               tcpip.o
    0x200000a8   0x00000010   Data   RW         5308    .data               mem.o
    0x200000b8   0x0000000c   Data   RW         5386    .data               netif.o
    0x200000c4   0x00000004   Data   RW         5548    .data               raw.o
    0x200000c8   0x00000021   Data   RW         5680    .data               tcp.o
    0x200000e9   0x00000003   PAD
    0x200000ec   0x00000020   Data   RW         5845    .data               tcp_in.o
    0x2000010c   0x00000004   Data   RW         5967    .data               udp.o
    0x20000110   0x0000000c   Data   RW         6161    .data               ip.o
    0x2000011c   0x00000006   Data   RW         6230    .data               ip_frag.o
    0x20000122   0x00000001   Data   RW         6288    .data               etharp.o
    0x20000123   0x00000001   PAD
    0x20000124   0x00000004   Data   RW         6688    .data               mc_w.l(stdout.o)
    0x20000128   0x00000200   Zero   RW            3    .bss                main.o
    0x20000328   0x00000030   Zero   RW           90    .bss                lwip.o
    0x20000358   0x00000400   Zero   RW          219    .bss                app.o
    0x20000758   0x00000e0c   Zero   RW         4340    .bss                os_core.o
    0x20001564   0x00002400   Zero   RW         4973    .bss                ethernetif.o
    0x20003964   0x00001168   Zero   RW         5047    .bss                sys_arch.o
    0x20004acc   0x00005014   Zero   RW         5307    .bss                mem.o
    0x20009ae0   0x0000484b   Zero   RW         5348    .bss                memp.o
    0x2000e32b   0x00000001   PAD
    0x2000e32c   0x00000014   Zero   RW         5844    .bss                tcp_in.o
    0x2000e340   0x000005e0   Zero   RW         6229    .bss                ip_frag.o
    0x2000e920   0x000000c8   Zero   RW         6286    .bss                etharp.o
    0x2000e9e8   0x00000400   Zero   RW         4301    STACK               startup_stm32f10x_cl.o


==============================================================================

Image component sizes


      Code (inc. data)   RO Data    RW Data    ZI Data      Debug   Object Name

       114         34          0          0       1024       1465   app.o
       896         62          0          0          0      19554   bsp.o
         0          0          0          0          0         32   core_cm3.o
      3616       1020         80          1        200      11242   etharp.o
       872        152          0         18       9216       6444   ethernetif.o
      1080        432          0          0          0       3198   icmp.o
        62          0          0          0          0       1720   inet.o
       180          0          0          0          0       4957   inet_chksum.o
        16          0          0          0          0        952   init.o
       936        148          0         12          0       4037   ip.o
        78          0          0          0          0       4709   ip_addr.o
      2288        546          0          6       1504       7516   ip_frag.o
       250         88          0          0         48      55170   lwip.o
       132         52          0          0        512     264621   main.o
      1976        790          0         16      20500       4397   mem.o
       492        266         48          0      18507       2722   memp.o
       156         32          0          0          0       1717   misc.o
       356         24          0         12          0       5931   netif.o
      2118        370        256         68       3596      21044   os_core.o
       164         32          0          0          0        248   os_cpu_a.o
       172          0          0          0          0      13573   os_cpu_c.o
       276        182         94          0          0       2677   os_dbg.o
       392         14          0          0          0       2837   os_mem.o
       648         38          0          0          0       2935   os_q.o
       678         30          0          0          0       2981   os_sem.o
      1362        112          0          0          0       6310   os_task.o
       304         24          0          0          0       1744   os_time.o
      3350       1396          0          0          0       6909   pbuf.o
       104          4          0          4          0       1300   raw.o
        36          8        336          0       1024        748   startup_stm32f10x_cl.o
      1596        136          0         16          0      12842   stm32_eth.o
       434         12          0          0          0       3413   stm32f10x_gpio.o
       174          6          0          0          0      18340   stm32f10x_it.o
       604         66          0         20          0       7120   stm32f10x_rcc.o
       282          6          0          0          0       3532   stm32f10x_usart.o
       784        232          0          0          0       3262   sys.o
      1234        464          4          8       4456       7424   sys_arch.o
       372         32          0         20          0       1913   system_stm32f10x.o
      2866        656         20         33          0      17662   tcp.o
      6120       1028          0         32         20      13960   tcp_in.o
      3604        868         81          0          0       8347   tcp_out.o
       528        104          0         16          0       4474   tcpip.o
       548        112          0          4          0       2839   udp.o

    ----------------------------------------------------------------------
     42304       9578        956        292      60608     568818   Object Totals
         0          0         32          0          0          0   (incl. Generated)
        54          0          5          6          1          0   (incl. Padding)

    ----------------------------------------------------------------------

      Code (inc. data)   RO Data    RW Data    ZI Data      Debug   Library Member Name

         0          0          0          0          0          0   entry.o
         8          4          0          0          0          0   entry2.o
         4          0          0          0          0          0   entry5.o
         0          0          0          0          0          0   entry7b.o
         8          4          0          0          0          0   entry8.o
        30          0          0          0          0          0   handlers.o
        36          8          0          0          0         68   init.o
        36          0          0          0          0         68   memcpya.o
        36          0          0          0          0        108   memseta.o
       472         14          0          0          0        180   printf3.o
         0          0          0          4          0          0   stdout.o
        44          0          0          0          0         80   uidiv.o

    ----------------------------------------------------------------------
       676         30          0          4          0        504   Library Totals
         2          0          0          0          0          0   (incl. Padding)

    ----------------------------------------------------------------------

      Code (inc. data)   RO Data    RW Data    ZI Data      Debug   Library Name

       674         30          0          4          0        504   mc_w.l

    ----------------------------------------------------------------------
       676         30          0          4          0        504   Library Totals

    ----------------------------------------------------------------------

==============================================================================


      Code (inc. data)   RO Data    RW Data    ZI Data      Debug   

     42980       9608        956        296      60608     553826   Grand Totals
     42980       9608        956        296      60608     553826   ELF Image Totals
     42980       9608        956        296          0          0   ROM Totals

==============================================================================

    Total RO  Size (Code + RO Data)                43936 (  42.91kB)
    Total RW  Size (RW Data + ZI Data)             60904 (  59.48kB)
    Total ROM Size (Code + RO Data + RW Data)      44232 (  43.20kB)

==============================================================================

